
./build/HydraUSB3_USB.elf:     file format elf32-littleriscv
./build/HydraUSB3_USB.elf
architecture: riscv:rv32, flags 0x00000112:
EXEC_P, HAS_SYMS, D_PAGED
start address 0x00000000

Program Header:
0x70000003 off    0x00007368 vaddr 0x00000000 paddr 0x00000000 align 2**0
         filesz 0x00000038 memsz 0x00000000 flags r--
    LOAD off    0x00001000 vaddr 0x00000000 paddr 0x00000000 align 2**12
         filesz 0x000058a0 memsz 0x000058a0 flags r-x
    LOAD off    0x00007000 vaddr 0x20000000 paddr 0x000058a0 align 2**12
         filesz 0x00000334 memsz 0x00000334 flags rw-
    LOAD off    0x00000338 vaddr 0x20000338 paddr 0x00005bd4 align 2**12
         filesz 0x00000000 memsz 0x00002290 flags rw-
    LOAD off    0x00000000 vaddr 0x20020000 paddr 0x00005bd4 align 2**12
         filesz 0x00000000 memsz 0x00003400 flags rw-
    LOAD off    0x00000800 vaddr 0x20003800 paddr 0x20003800 align 2**12
         filesz 0x00000000 memsz 0x00000800 flags rw-

Sections:
Idx Name              Size      VMA       LMA       File off  Algn  Flags
  0 .init             00000004  00000000  00000000  00001000  2**1  CONTENTS, ALLOC, LOAD, READONLY, CODE
  1 .vector           000000bc  00000004  00000004  00001004  2**1  CONTENTS, ALLOC, LOAD, READONLY, CODE
  2 .text             000057e0  000000c0  000000c0  000010c0  2**2  CONTENTS, ALLOC, LOAD, READONLY, CODE
  3 .fini             00000000  000058a0  000058a0  00007334  2**0  CONTENTS, ALLOC, LOAD, CODE
  4 .dalign           00000000  20000000  20000000  00007334  2**0  CONTENTS
  5 .dlalign          00000000  000058a0  000058a0  00007334  2**0  CONTENTS
  6 .data             00000334  20000000  000058a0  00007000  2**2  CONTENTS, ALLOC, LOAD, DATA
  7 .bss              00002290  20000338  00005bd4  00007338  2**3  ALLOC
  8 .DMADATA          00003400  20020000  00005bd4  00008000  2**4  ALLOC
  9 .stack            00000800  20003800  20003800  00007800  2**0  ALLOC
 10 .comment          00000034  00000000  00000000  00007334  2**0  CONTENTS, READONLY
 11 .riscv.attributes 00000038  00000000  00000000  00007368  2**0  CONTENTS, READONLY
 12 .debug_info       00000839  00000000  00000000  000073a0  2**0  CONTENTS, READONLY, DEBUGGING, OCTETS
 13 .debug_abbrev     00000216  00000000  00000000  00007bd9  2**0  CONTENTS, READONLY, DEBUGGING, OCTETS
 14 .debug_loclists   00000a4c  00000000  00000000  00007def  2**0  CONTENTS, READONLY, DEBUGGING, OCTETS
 15 .debug_aranges    00000038  00000000  00000000  0000883b  2**0  CONTENTS, READONLY, DEBUGGING, OCTETS
 16 .debug_rnglists   0000011b  00000000  00000000  00008873  2**0  CONTENTS, READONLY, DEBUGGING, OCTETS
 17 .debug_line       00000752  00000000  00000000  0000898e  2**0  CONTENTS, READONLY, DEBUGGING, OCTETS
 18 .debug_str        000002f2  00000000  00000000  000090e0  2**0  CONTENTS, READONLY, DEBUGGING, OCTETS
 19 .debug_line_str   000001b5  00000000  00000000  000093d2  2**0  CONTENTS, READONLY, DEBUGGING, OCTETS
SYMBOL TABLE:
00000000 l    d  .init	00000000 .init
00000004 l    d  .vector	00000000 .vector
000000c0 l    d  .text	00000000 .text
000058a0 l    d  .fini	00000000 .fini
20000000 l    d  .dalign	00000000 .dalign
000058a0 l    d  .dlalign	00000000 .dlalign
20000000 l    d  .data	00000000 .data
20000338 l    d  .bss	00000000 .bss
20020000 l    d  .DMADATA	00000000 .DMADATA
20003800 l    d  .stack	00000000 .stack
00000000 l    d  .comment	00000000 .comment
00000000 l    d  .riscv.attributes	00000000 .riscv.attributes
00000000 l    d  .debug_info	00000000 .debug_info
00000000 l    d  .debug_abbrev	00000000 .debug_abbrev
00000000 l    d  .debug_loclists	00000000 .debug_loclists
00000000 l    d  .debug_aranges	00000000 .debug_aranges
00000000 l    d  .debug_rnglists	00000000 .debug_rnglists
00000000 l    d  .debug_line	00000000 .debug_line
00000000 l    d  .debug_str	00000000 .debug_str
00000000 l    d  .debug_line_str	00000000 .debug_line_str
00000000 l    df *ABS*	00000000 startup_CH56x.o
00000004 l       .vector	00000000 _vector_base
0000345a l       .text	00000000 __app_main_enter
00003462 l       .text	00000000 __app_main_exit
00000000 l    df *ABS*	00000000 lib_a-memcpy-asm.o
00000000 l    df *ABS*	00000000 lib_a-memset.o
00000000 l    df *ABS*	00000000 lib_a-memmove.o
00000000 l    df *ABS*	00000000 core_riscv.c
00000000 l    df *ABS*	00000000 CH56x_gpio.c
00000000 l    df *ABS*	00000000 CH56x_debug_log.c
20000338 l     O .bss	00000004 debug_log_buf
20000340 l     O .bss	00000008 startCNT64
00000000 l    df *ABS*	00000000 CH56x_sys.c
00000000 l    df *ABS*	00000000 CH56x_flash.c
00000000 l    df *ABS*	00000000 CH56x_timer.c
00000000 l    df *ABS*	00000000 CH56x_bsp.c
00000000 l    df *ABS*	00000000 CH56x_clk.c
00000000 l    df *ABS*	00000000 CH56x_uart.c
00000000 l    df *ABS*	00000000 teeny_usb_retarget.c
00000000 l    df *ABS*	00000000 tusbd_cdc.c
00000a3a l     F .text	0000002c tusb_cdc_device_send_done
00000a66 l     F .text	00000012 tusb_cdc_device_recv_done
00000a78 l     F .text	0000004c tusb_cdc_device_init
00000ac4 l     F .text	0000014a cdc_ctrl.isra.0
00005270 l     O .text	0000000c stop_name
00000c0e l     F .text	00000046 cdc_dataout_request
00000c54 l     F .text	0000008a tusb_cdc_device_request
00000000 l    df *ABS*	00000000 tusb_dev_drv_ch56x.c
20020000 l     O .DMADATA	00000200 ep0_buff
00000000 l    df *ABS*	00000000 hydrausb3_v1.c
00000000 l    df *ABS*	00000000 CH56x_usb30_devbulk.c
2000036c l     O .bss	00000001 SetupReqCode
20000370 l     O .bss	00000004 SetupLen
20000368 l     O .bss	00000004 pDescr
20000360 l     O .bss	00000004 count.0
00000000 l    df *ABS*	00000000 CH56x_usb20_devbulk.c
20000388 l     O .bss	00000001 SetupReq
20000384 l     O .bss	00000004 pDescr
20000389 l     O .bss	00000001 SetupReqType
20000380 l     O .bss	00000004 pUEP1_TX_data
2000037c l     O .bss	00000004 pUEP1_RX_data
00000000 l    df *ABS*	00000000 CH56x_usb_devbulk_desc_cmd.c
0000544c l     O .text	00000010 htoa
00000000 l    df *ABS*	00000000 Main.c
20000398 l     O .bss	00000004 cdc_len
00000000 l    df *ABS*	00000000 usb_cmd.c
00000000 l    df *ABS*	00000000 libgcc2.c
00000000 l    df *ABS*	00000000 lib_a-errno.o
00000000 l    df *ABS*	00000000 lib_a-nano-freer.o
00000000 l    df *ABS*	00000000 lib_a-nano-mallocr.o
0000386a l     F .text	00000054 sbrk_aligned
00000000 l    df *ABS*	00000000 lib_a-printf.o
00000000 l    df *ABS*	00000000 lib_a-puts.o
00000000 l    df *ABS*	00000000 lib_a-sbrkr.o
00000000 l    df *ABS*	00000000 lib_a-snprintf.o
00000000 l    df *ABS*	00000000 lib_a-sprintf.o
00000000 l    df *ABS*	00000000 lib_a-vsnprintf.o
00000000 l    df *ABS*	00000000 lib_a-wbuf.o
00000000 l    df *ABS*	00000000 lib_a-wsetup.o
00000000 l    df *ABS*	00000000 lib_a-fflush.o
00000000 l    df *ABS*	00000000 lib_a-findfp.o
00003fec l     F .text	0000006a std
00000000 l    df *ABS*	00000000 lib_a-fwalk.o
00000000 l    df *ABS*	00000000 lib_a-lock.o
00000000 l    df *ABS*	00000000 lib_a-makebuf.o
00000000 l    df *ABS*	00000000 lib_a-mlock.o
00000000 l    df *ABS*	00000000 lib_a-nano-svfprintf.o
00000000 l    df *ABS*	00000000 lib_a-nano-vfprintf_i.o
00000000 l    df *ABS*	00000000 lib_a-nano-vfprintf.o
00004a40 l     F .text	0000002a __sfputc_r
00000000 l    df *ABS*	00000000 lib_a-stdio.o
00000000 l    df *ABS*	00000000 lib_a-writer.o
00000000 l    df *ABS*	00000000 lib_a-closer.o
00000000 l    df *ABS*	00000000 lib_a-fstatr.o
00000000 l    df *ABS*	00000000 lib_a-isattyr.o
00000000 l    df *ABS*	00000000 lib_a-lseekr.o
00000000 l    df *ABS*	00000000 lib_a-memchr.o
00000000 l    df *ABS*	00000000 lib_a-nano-reallocr.o
00000000 l    df *ABS*	00000000 lib_a-readr.o
00000000 l    df *ABS*	00000000 lib_a-nano-msizer.o
00000000 l    df *ABS*	00000000 sys_close.o
00000000 l    df *ABS*	00000000 sys_fstat.o
00000000 l    df *ABS*	00000000 sys_isatty.o
00000000 l    df *ABS*	00000000 sys_lseek.o
00000000 l    df *ABS*	00000000 sys_read.o
00000000 l    df *ABS*	00000000 sys_sbrk.o
200003c0 l     O .bss	00000004 heap_end.0
00000000 l    df *ABS*	00000000 sys_conv_stat.o
00000000 l    df *ABS*	00000000 libgcc2.c
00000000 l    df *ABS*	00000000 lib_a-impure.o
200002b8 l     O .data	00000060 impure_data
00004fca g     F .text	00000014 _malloc_usable_size_r
000033ac  w      .text	00000000 GPIO_IRQHandler
00004eba g     F .text	00000026 _isatty_r
00003a06 g     F .text	00000112 _puts_r
00004ee0 g     F .text	0000002a _lseek_r
000033bc  w      .text	00000000 EMMC_IRQHandler
000019c2 g     F .text	0000030a LINK_IRQHandler
00002db4 g     F .text	00000008 cdc_recv_data
000039cc g     F .text	0000003a printf
20000b18 g       .data	00000000 __global_pointer$
20000350 g     O .bss	00000008 bsp_ms_nbcycles
00004e04 g     F .text	00000036 __sseek
000040c0 g     F .text	00000068 __sinit
20000168 g     O .data	00000014 USB_SS_StringProduct
00003c6e g     F .text	000000c0 __swbuf_r
000031b0 g     F .text	00000054 HardFault_Handler
20000378 g     O .bss	00000004 EP1_OUT_seq_num
000011e2 g     F .text	00000010 bsp_uled_off
00005254 g     O .text	00000010 cdc_device_backend
00004060 g     F .text	00000048 __sfmoreglue
00004346 g     F .text	00000006 __malloc_unlock
000033a4  w      .text	00000000 SysTick_Handler
200005c4 g     O .bss	00001002 log_buf
20023200 g     O .DMADATA	00000200 endp0RTbuff
000000e6 g     F .text	00000026 memmove
00003b48 g     F .text	00000070 snprintf
0000097c g     F .text	0000001a UART2_ByteTrigCfg
000033a0  w      .text	00000000 NMI_Handler
0000035a g     F .text	00000020 log_init
000033c4  w      .text	00000000 UART1_IRQHandler
000037c2 g     F .text	00000006 __errno
000009c8  w    F .text	00000002 stdout_sendchar
000050fa g     F .text	0000004e _conv_stat
0000010c g     F .text	00000006 __get_MSTATUS
20000250 g     O .data	00000012 USB_SS_DeviceDescriptor
000028c4 g     F .text	0000039e USBHS_IRQHandler
0000148e g     F .text	00000144 USB30D_init
00004e92 g     F .text	00000028 _fstat_r
200003bc g     O .bss	00000004 errno
00001718 g     F .text	0000019a USB30_StandardReq
20000338 g       .bss	00000000 _sbss
00000800 g       *ABS*	00000000 __stack_size
20022200 g     O .DMADATA	00001000 endp1Tbuff
2000031c g     O .data	00000004 USB_StringLangID
00000616 g     F .text	0000004e bsp_init
000033b8  w      .text	00000000 UART0_IRQHandler
2000012c g     O .data	0000003c USB_StringSerial
2000038c g     O .bss	00000005 g_devInfo
000000c0 g     F .text	00000016 memcpy
20000348 g     O .bss	00000004 bsp_tick_frequency
00004056 g     F .text	0000000a _cleanup_r
00004438 g     F .text	00000274 _svfprintf_r
20000394 g     O .bss	00000002 SetupReqLen
00003b18 g     F .text	00000008 puts
00005008 g     F .text	00000038 _fstat
00000004 g       .init	00000000 _einit
00003c60 g     F .text	0000000e vsnprintf
0000023e g     F .text	0000011c GPIOB_ModeCfg
000033ce  w      .text	00000000 PMT_IRQHandler
000033c2  w      .text	00000000 SPI1_IRQHandler
00003b20 g     F .text	00000028 _sbrk_r
20000118 g     O .data	00000012 USB_OSStringDescriptor
000018b2 g     F .text	00000110 TMR0_IRQHandler
00004fa0 g     F .text	0000002a _read_r
000033d0  w      .text	00000000 ECDC_IRQHandler
000022d4 g     F .text	000000da USB20_Device_Init
200003c4 g     O .bss	00000200 cdc_buf
00005040 g     F .text	0000001e _isatty
200003b8 g     O .bss	00000001 __lock___sinit_recursive_mutex
20000330 g     O .data	00000004 _global_impure_ptr
20000204 g     O .data	0000004b USB_HS_ConfigDescriptor
00004f24 g     F .text	0000007c _realloc_r
00003464 g     F .text	0000035e .hidden __udivdi3
00000674 g     F .text	0000006e bsp_wait_us_delay
000011c4 g     F .text	0000000e bsp_ubtn
000050b2 g     F .text	00000048 _sbrk
20020000 g       .DMADATA	00000000 _dmadata_start
20000278 g     O .data	00000040 cdc_dev
200025c8 g       .bss	00000000 _ebss
00003c60 g     F .text	0000000e vsniprintf
20000364 g     O .bss	00000001 g_DeviceUsbType
00002c62 g     F .text	00000052 usb_descriptor_set_usb_vid_pid
000033be  w      .text	00000000 DVP_IRQHandler
200003b0 g     O .bss	00000001 __lock___malloc_recursive_mutex
000011f2 g     F .text	00000156 USB3_force
00001ccc g     F .text	00000430 USBSS_IRQHandler
00001088 g     F .text	000000de tusb_dev_drv_set_rx_valid
200001a4 g     O .data	0000005d USB_SS_ConfigDescriptor
20023400 g       .DMADATA	00000000 _dmadata_end
000057ac g     O .text	00000020 __sf_fake_stderr
00003b48 g     F .text	00000070 sniprintf
0000250c g     F .text	000003b8 U20_Standard_Request
0000423c g     F .text	00000002 __retarget_lock_release_recursive
00003204 g     F .text	00000014 UART2_IRQHandler
20000375 g     O .bss	00000001 tx_lmp_port
0000434c g     F .text	000000ec __ssputs_r
00004a6a g     F .text	00000042 __sfputs_r
000040a8 g     F .text	00000006 __sfp_lock_acquire
00004f0a g     F .text	0000001a memchr
000037c8 g     F .text	000000a2 _free_r
00000996 g     F .text	00000032 UART2_INTCfg
20000000 g     O .data	0000008e USB_PropertyHeader
00000000 g       .init	00000000 _start
000004e8 g     F .text	0000011a FLASH_ROMA_READ
0000505e g     F .text	0000002a _lseek
20020200 g     O .DMADATA	00001000 endp2RTbuff
20000392 g     O .bss	00000002 SetupLen
000033b6  w      .text	00000000 TMR2_IRQHandler
2000017c g     O .data	00000014 USB_HS_StringProduct
00000118 g     F .text	00000006 __get_MCAUSE
00000664 g     F .text	00000010 bsp_get_SysTickCNT
00004e6c g     F .text	00000026 _close_r
20000000 g       .dalign	00000000 _data_vma
00003d2e g     F .text	000000fc __swsetup_r
00004128 g     F .text	000000a6 __sfp
000040ba g     F .text	00000006 __sinit_lock_release
00003bfc g     F .text	00000064 _vsnprintf_r
00004d86 g     F .text	00000030 __sread
20000100 g     O .data	00000016 USB_BOSDescriptor
00004340 g     F .text	00000006 __malloc_lock
00003f64 g     F .text	00000088 _fflush_r
20021200 g     O .DMADATA	00001000 endp1Rbuff
000057ec g     O .text	00000020 __sf_fake_stdin
00001020 g     F .text	00000068 tusb_dev_drv_set_recv_buffer
0000423a g     F .text	00000002 __retarget_lock_acquire_recursive
000000d6 g     F .text	00000010 memset
00002dd6 g     F .text	000003da main
2000039c g     O .bss	00000001 trigB
00004238 g     F .text	00000002 __retarget_lock_init_recursive
000020fc g     F .text	0000011c USB2_force
00004e3a g     F .text	00000006 __sclose
000038be g     F .text	0000010e _malloc_r
0000011e g     F .text	00000004 __get_SP
20000365 g     O .bss	00000001 g_DeviceConnectstatus
20000264 g     O .data	00000012 USB_HS_DeviceDescriptor
20000324 g     O .data	00000004 blink_ms
00002dbe g     F .text	00000018 cdc_send_done
000011d2 g     F .text	00000010 bsp_uled_on
00000750 g     F .text	0000018a SystemInit
000039cc g     F .text	0000003a iprintf
00003218 g     F .text	00000188 usb_cmd_rx
20000190 g     O .data	00000012 USB_StringVendor
00003bb8 g     F .text	00000044 sprintf
000056ac g     O .text	00000100 .hidden __clz_tab
00000000 g       .init	00000000 _sinit
00001166 g     F .text	0000005e bsp_gpio_init
00004e40 g     F .text	0000002c _write_r
20000090 g     O .data	00000028 USB_CompatId
000033cc  w      .text	00000000 ETH_IRQHandler
000046ac g     F .text	00000110 _printf_common
20000328 g     O .data	00000004 _impure_ptr
00003e2a g     F .text	0000013a __sflush_r
000006e2 g     F .text	0000006e bsp_wait_ms_delay
00004438 g     F .text	00000274 _svfiprintf_r
200015c8 g     O .bss	00001000 cmd_usb_info_buf
20004000 g       .stack	00000000 _eusrstack
00003bfc g     F .text	00000064 _vsniprintf_r
000033a6  w      .text	00000000 SW_Handler
00000122 g     F .text	0000011c GPIOA_ModeCfg
200000b8 g     O .data	00000048 USB_MSOS20DescriptorSet
0000423e g     F .text	0000005c __swhatbuf_r
000008da g     F .text	0000004e GetSysClock
000009ca g     F .text	00000070 _write
20000334 g       .data	00000000 _edata
000033ae  w      .text	00000000 SPI0_IRQHandler
20000358 g     O .bss	00000008 bsp_us_nbcycles
20000374 g     O .bss	00000001 link_sta
00001348 g     F .text	00000146 USB30_BusReset
000058a0 g       .dlalign	00000000 _data_lma
000015d2 g     F .text	00000146 USB30_NonStandardReq
00004db6 g     F .text	0000004e __swrite
00004aac g     F .text	000002da _vfiprintf_r
000041ce g     F .text	0000006a _fwalk_reent
00002dbc g     F .text	00000002 cdc_line_coding_change
00000928 g     F .text	00000054 UART2_init
000040ae g     F .text	00000006 __sfp_lock_release
000057cc g     O .text	00000020 __sf_fake_stdout
00003bb8 g     F .text	00000044 siprintf
200003a0 g     O .bss	00000008 unique_id
000033a8  w      .text	00000000 WDOG_IRQHandler
000033c0  w      .text	00000000 HSPI_IRQHandler
00005088 g     F .text	0000002a _read
000033d2  w      .text	00000000 handle_reset
0000037a g     F .text	00000148 log_printf
00002218 g     F .text	000000bc USB20_Endp_Init
0000429a g     F .text	000000a6 __smakebuf_r
000047bc g     F .text	00000284 _printf_i
000033c8  w      .text	00000000 UART3_IRQHandler
200003a8 g     O .bss	00000004 __malloc_sbrk_start
00002cb4 g     F .text	00000100 usb_descriptor_set_string_serial_number
20000320 g     O .data	00000004 vid_pid
200003ac g     O .bss	00000004 __malloc_free_list
00004aac g     F .text	000002da _vfprintf_r
000033b4  w      .text	00000000 TMR1_IRQHandler
000033ca  w      .text	00000000 SERDES_IRQHandler
00000112 g     F .text	00000006 __get_MIE
000023ae g     F .text	0000015e U20_NonStandard_Request
000004c2 g     F .text	00000026 SYS_ResetExecute
20000318 g     O .data	00000002 U20_EndpnMaxSize
200003b4 g     O .bss	00000001 __lock___sfp_recursive_mutex
00000cde g     F .text	00000342 tusb_dev_drv_send_data
00004fde g     F .text	0000002a _close
000040b4 g     F .text	00000006 __sinit_lock_acquire
00000602 g     F .text	00000014 TMR0_TimerInit



Disassembly of section .init:

00000000 <_sinit>:
_start():
   0:	3d20306f          	j	33d2 <handle_reset>

Disassembly of section .vector:

00000004 <_vector_base>:
	...
_vector_base():
   c:	3940306f          	j	33a0 <NMI_Handler>
  10:	1a00306f          	j	31b0 <HardFault_Handler>
  14:	f7f9bf11          	.word	0xf7f9bf11
	...
  34:	3700306f          	j	33a4 <SysTick_Handler>
  38:	00000000          	.word	0x00000000
  3c:	36a0306f          	j	33a6 <SW_Handler>
  40:	00000000          	.word	0x00000000
  44:	3640306f          	j	33a8 <WDOG_IRQHandler>
  48:	06b0106f          	j	18b2 <TMR0_IRQHandler>
  4c:	3600306f          	j	33ac <GPIO_IRQHandler>
  50:	35e0306f          	j	33ae <SPI0_IRQHandler>
  54:	4790106f          	j	1ccc <USBSS_IRQHandler>
  58:	16b0106f          	j	19c2 <LINK_IRQHandler>
  5c:	3580306f          	j	33b4 <TMR1_IRQHandler>
  60:	3560306f          	j	33b6 <TMR2_IRQHandler>
  64:	3540306f          	j	33b8 <UART0_IRQHandler>
  68:	05d0206f          	j	28c4 <USBHS_IRQHandler>
  6c:	3500306f          	j	33bc <EMMC_IRQHandler>
  70:	34e0306f          	j	33be <DVP_IRQHandler>
  74:	34c0306f          	j	33c0 <HSPI_IRQHandler>
  78:	34a0306f          	j	33c2 <SPI1_IRQHandler>
  7c:	3480306f          	j	33c4 <UART1_IRQHandler>
  80:	1840306f          	j	3204 <UART2_IRQHandler>
  84:	3440306f          	j	33c8 <UART3_IRQHandler>
  88:	3420306f          	j	33ca <SERDES_IRQHandler>
  8c:	3400306f          	j	33cc <ETH_IRQHandler>
  90:	33e0306f          	j	33ce <PMT_IRQHandler>
  94:	33c0306f          	j	33d0 <ECDC_IRQHandler>
	...

Disassembly of section .text:

000000c0 <memcpy>:
memcpy():
      c0:	832a                	mv	t1,a0
      c2:	ca09                	beqz	a2,d4 <memcpy+0x14>
      c4:	00058383          	lb	t2,0(a1)
      c8:	00730023          	sb	t2,0(t1)
      cc:	167d                	addi	a2,a2,-1
      ce:	0305                	addi	t1,t1,1
      d0:	0585                	addi	a1,a1,1
      d2:	fa6d                	bnez	a2,c4 <memcpy+0x4>
      d4:	8082                	ret

000000d6 <memset>:
memset():
      d6:	832a                	mv	t1,a0
      d8:	c611                	beqz	a2,e4 <memset+0xe>
      da:	00b30023          	sb	a1,0(t1)
      de:	167d                	addi	a2,a2,-1
      e0:	0305                	addi	t1,t1,1
      e2:	fe65                	bnez	a2,da <memset+0x4>
      e4:	8082                	ret

000000e6 <memmove>:
memmove():
      e6:	c215                	beqz	a2,10a <memmove+0x24>
      e8:	832a                	mv	t1,a0
      ea:	4685                	li	a3,1
      ec:	00b56763          	bltu	a0,a1,fa <memmove+0x14>
      f0:	56fd                	li	a3,-1
      f2:	fff60713          	addi	a4,a2,-1
      f6:	933a                	add	t1,t1,a4
      f8:	95ba                	add	a1,a1,a4
      fa:	00058383          	lb	t2,0(a1)
      fe:	00730023          	sb	t2,0(t1)
     102:	167d                	addi	a2,a2,-1
     104:	9336                	add	t1,t1,a3
     106:	95b6                	add	a1,a1,a3
     108:	fa6d                	bnez	a2,fa <memmove+0x14>
     10a:	8082                	ret

0000010c <__get_MSTATUS>:
__get_MSTATUS():
     10c:	30002573          	csrr	a0,mstatus
     110:	8082                	ret

00000112 <__get_MIE>:
__get_MIE():
     112:	30402573          	csrr	a0,mie
     116:	8082                	ret

00000118 <__get_MCAUSE>:
__get_MCAUSE():
     118:	34202573          	csrr	a0,mcause
     11c:	8082                	ret

0000011e <__get_SP>:
__get_SP():
     11e:	850a                	mv	a0,sp
     120:	8082                	ret

00000122 <GPIOA_ModeCfg>:
GPIOA_ModeCfg():
     122:	47a9                	li	a5,10
     124:	02b7e663          	bltu	a5,a1,150 <GPIOA_ModeCfg+0x2e>
     128:	6795                	lui	a5,0x5
     12a:	14878793          	addi	a5,a5,328 # 5148 <_conv_stat+0x4e>
     12e:	058a                	slli	a1,a1,0x2
     130:	95be                	add	a1,a1,a5
     132:	419c                	lw	a5,0(a1)
     134:	8782                	jr	a5
     136:	400017b7          	lui	a5,0x40001
     13a:	4fb4                	lw	a3,88(a5)
     13c:	fff54713          	not	a4,a0
     140:	8f75                	and	a4,a4,a3
     142:	cfb8                	sw	a4,88(a5)
     144:	4bf8                	lw	a4,84(a5)
     146:	8f49                	or	a4,a4,a0
     148:	cbf8                	sw	a4,84(a5)
     14a:	43b8                	lw	a4,64(a5)
     14c:	8f49                	or	a4,a4,a0
     14e:	c3b8                	sw	a4,64(a5)
     150:	8082                	ret
     152:	400017b7          	lui	a5,0x40001
     156:	4fb8                	lw	a4,88(a5)
     158:	8f49                	or	a4,a4,a0
     15a:	b7e5                	j	142 <GPIOA_ModeCfg+0x20>
     15c:	400017b7          	lui	a5,0x40001
     160:	4bf8                	lw	a4,84(a5)
     162:	fff54513          	not	a0,a0
     166:	8f69                	and	a4,a4,a0
     168:	cbf8                	sw	a4,84(a5)
     16a:	4bb8                	lw	a4,80(a5)
     16c:	8f69                	and	a4,a4,a0
     16e:	cbb8                	sw	a4,80(a5)
     170:	43b8                	lw	a4,64(a5)
     172:	8d79                	and	a0,a0,a4
     174:	c3a8                	sw	a0,64(a5)
     176:	8082                	ret
     178:	400017b7          	lui	a5,0x40001
     17c:	4ff4                	lw	a3,92(a5)
     17e:	fff54713          	not	a4,a0
     182:	8ef9                	and	a3,a3,a4
     184:	cff4                	sw	a3,92(a5)
     186:	4bf4                	lw	a3,84(a5)
     188:	8ef9                	and	a3,a3,a4
     18a:	cbf4                	sw	a3,84(a5)
     18c:	4bb4                	lw	a3,80(a5)
     18e:	8ec9                	or	a3,a3,a0
     190:	cbb4                	sw	a3,80(a5)
     192:	43b4                	lw	a3,64(a5)
     194:	8f75                	and	a4,a4,a3
     196:	c3b8                	sw	a4,64(a5)
     198:	8082                	ret
     19a:	400017b7          	lui	a5,0x40001
     19e:	4ff4                	lw	a3,92(a5)
     1a0:	fff54713          	not	a4,a0
     1a4:	8ef9                	and	a3,a3,a4
     1a6:	cff4                	sw	a3,92(a5)
     1a8:	4bf4                	lw	a3,84(a5)
     1aa:	8ec9                	or	a3,a3,a0
     1ac:	cbf4                	sw	a3,84(a5)
     1ae:	4bb4                	lw	a3,80(a5)
     1b0:	8ef9                	and	a3,a3,a4
     1b2:	cbb4                	sw	a3,80(a5)
     1b4:	43b4                	lw	a3,64(a5)
     1b6:	8f75                	and	a4,a4,a3
     1b8:	c3b8                	sw	a4,64(a5)
     1ba:	8082                	ret
     1bc:	400017b7          	lui	a5,0x40001
     1c0:	4ff4                	lw	a3,92(a5)
     1c2:	fff54713          	not	a4,a0
     1c6:	8ec9                	or	a3,a3,a0
     1c8:	bf75                	j	184 <GPIOA_ModeCfg+0x62>
     1ca:	400017b7          	lui	a5,0x40001
     1ce:	4ff4                	lw	a3,92(a5)
     1d0:	fff54713          	not	a4,a0
     1d4:	8ec9                	or	a3,a3,a0
     1d6:	bfc1                	j	1a6 <GPIOA_ModeCfg+0x84>
     1d8:	400017b7          	lui	a5,0x40001
     1dc:	4ff4                	lw	a3,92(a5)
     1de:	fff54713          	not	a4,a0
     1e2:	8ec9                	or	a3,a3,a0
     1e4:	cff4                	sw	a3,92(a5)
     1e6:	4fb4                	lw	a3,88(a5)
     1e8:	8ef9                	and	a3,a3,a4
     1ea:	cfb4                	sw	a3,88(a5)
     1ec:	4bf4                	lw	a3,84(a5)
     1ee:	8f75                	and	a4,a4,a3
     1f0:	cbf8                	sw	a4,84(a5)
     1f2:	43b8                	lw	a4,64(a5)
     1f4:	8f49                	or	a4,a4,a0
     1f6:	c3b8                	sw	a4,64(a5)
     1f8:	8082                	ret
     1fa:	400017b7          	lui	a5,0x40001
     1fe:	4ff4                	lw	a3,92(a5)
     200:	fff54713          	not	a4,a0
     204:	8ec9                	or	a3,a3,a0
     206:	cff4                	sw	a3,92(a5)
     208:	4fb4                	lw	a3,88(a5)
     20a:	8ec9                	or	a3,a3,a0
     20c:	cfb4                	sw	a3,88(a5)
     20e:	4bf4                	lw	a3,84(a5)
     210:	8f75                	and	a4,a4,a3
     212:	cbf8                	sw	a4,84(a5)
     214:	43b8                	lw	a4,64(a5)
     216:	8f49                	or	a4,a4,a0
     218:	c3b8                	sw	a4,64(a5)
     21a:	8082                	ret
     21c:	400017b7          	lui	a5,0x40001
     220:	4ff4                	lw	a3,92(a5)
     222:	fff54713          	not	a4,a0
     226:	8ef9                	and	a3,a3,a4
     228:	cff4                	sw	a3,92(a5)
     22a:	4fb4                	lw	a3,88(a5)
     22c:	8ef9                	and	a3,a3,a4
     22e:	bf75                	j	1ea <GPIOA_ModeCfg+0xc8>
     230:	400017b7          	lui	a5,0x40001
     234:	4ff4                	lw	a3,92(a5)
     236:	fff54713          	not	a4,a0
     23a:	8ef9                	and	a3,a3,a4
     23c:	b7e9                	j	206 <GPIOA_ModeCfg+0xe4>

0000023e <GPIOB_ModeCfg>:
GPIOB_ModeCfg():
     23e:	47a9                	li	a5,10
     240:	02b7e663          	bltu	a5,a1,26c <GPIOB_ModeCfg+0x2e>
     244:	6795                	lui	a5,0x5
     246:	17478793          	addi	a5,a5,372 # 5174 <_conv_stat+0x7a>
     24a:	058a                	slli	a1,a1,0x2
     24c:	95be                	add	a1,a1,a5
     24e:	419c                	lw	a5,0(a1)
     250:	8782                	jr	a5
     252:	400017b7          	lui	a5,0x40001
     256:	5fb4                	lw	a3,120(a5)
     258:	fff54713          	not	a4,a0
     25c:	8f75                	and	a4,a4,a3
     25e:	dfb8                	sw	a4,120(a5)
     260:	5bf8                	lw	a4,116(a5)
     262:	8f49                	or	a4,a4,a0
     264:	dbf8                	sw	a4,116(a5)
     266:	53b8                	lw	a4,96(a5)
     268:	8f49                	or	a4,a4,a0
     26a:	d3b8                	sw	a4,96(a5)
     26c:	8082                	ret
     26e:	400017b7          	lui	a5,0x40001
     272:	5fb8                	lw	a4,120(a5)
     274:	8f49                	or	a4,a4,a0
     276:	b7e5                	j	25e <GPIOB_ModeCfg+0x20>
     278:	400017b7          	lui	a5,0x40001
     27c:	5bf8                	lw	a4,116(a5)
     27e:	fff54513          	not	a0,a0
     282:	8f69                	and	a4,a4,a0
     284:	dbf8                	sw	a4,116(a5)
     286:	5bb8                	lw	a4,112(a5)
     288:	8f69                	and	a4,a4,a0
     28a:	dbb8                	sw	a4,112(a5)
     28c:	53b8                	lw	a4,96(a5)
     28e:	8d79                	and	a0,a0,a4
     290:	d3a8                	sw	a0,96(a5)
     292:	8082                	ret
     294:	400017b7          	lui	a5,0x40001
     298:	5ff4                	lw	a3,124(a5)
     29a:	fff54713          	not	a4,a0
     29e:	8ef9                	and	a3,a3,a4
     2a0:	dff4                	sw	a3,124(a5)
     2a2:	5bf4                	lw	a3,116(a5)
     2a4:	8ef9                	and	a3,a3,a4
     2a6:	dbf4                	sw	a3,116(a5)
     2a8:	5bb4                	lw	a3,112(a5)
     2aa:	8ec9                	or	a3,a3,a0
     2ac:	dbb4                	sw	a3,112(a5)
     2ae:	53b4                	lw	a3,96(a5)
     2b0:	8f75                	and	a4,a4,a3
     2b2:	d3b8                	sw	a4,96(a5)
     2b4:	8082                	ret
     2b6:	400017b7          	lui	a5,0x40001
     2ba:	5ff4                	lw	a3,124(a5)
     2bc:	fff54713          	not	a4,a0
     2c0:	8ef9                	and	a3,a3,a4
     2c2:	dff4                	sw	a3,124(a5)
     2c4:	5bf4                	lw	a3,116(a5)
     2c6:	8ec9                	or	a3,a3,a0
     2c8:	dbf4                	sw	a3,116(a5)
     2ca:	5bb4                	lw	a3,112(a5)
     2cc:	8ef9                	and	a3,a3,a4
     2ce:	dbb4                	sw	a3,112(a5)
     2d0:	53b4                	lw	a3,96(a5)
     2d2:	8f75                	and	a4,a4,a3
     2d4:	d3b8                	sw	a4,96(a5)
     2d6:	8082                	ret
     2d8:	400017b7          	lui	a5,0x40001
     2dc:	5ff4                	lw	a3,124(a5)
     2de:	fff54713          	not	a4,a0
     2e2:	8ec9                	or	a3,a3,a0
     2e4:	bf75                	j	2a0 <GPIOB_ModeCfg+0x62>
     2e6:	400017b7          	lui	a5,0x40001
     2ea:	5ff4                	lw	a3,124(a5)
     2ec:	fff54713          	not	a4,a0
     2f0:	8ec9                	or	a3,a3,a0
     2f2:	bfc1                	j	2c2 <GPIOB_ModeCfg+0x84>
     2f4:	400017b7          	lui	a5,0x40001
     2f8:	5ff4                	lw	a3,124(a5)
     2fa:	fff54713          	not	a4,a0
     2fe:	8ec9                	or	a3,a3,a0
     300:	dff4                	sw	a3,124(a5)
     302:	5fb4                	lw	a3,120(a5)
     304:	8ef9                	and	a3,a3,a4
     306:	dfb4                	sw	a3,120(a5)
     308:	5bf4                	lw	a3,116(a5)
     30a:	8f75                	and	a4,a4,a3
     30c:	dbf8                	sw	a4,116(a5)
     30e:	53b8                	lw	a4,96(a5)
     310:	8f49                	or	a4,a4,a0
     312:	d3b8                	sw	a4,96(a5)
     314:	8082                	ret
     316:	400017b7          	lui	a5,0x40001
     31a:	5ff4                	lw	a3,124(a5)
     31c:	fff54713          	not	a4,a0
     320:	8ec9                	or	a3,a3,a0
     322:	dff4                	sw	a3,124(a5)
     324:	5fb4                	lw	a3,120(a5)
     326:	8ec9                	or	a3,a3,a0
     328:	dfb4                	sw	a3,120(a5)
     32a:	5bf4                	lw	a3,116(a5)
     32c:	8f75                	and	a4,a4,a3
     32e:	dbf8                	sw	a4,116(a5)
     330:	53b8                	lw	a4,96(a5)
     332:	8f49                	or	a4,a4,a0
     334:	d3b8                	sw	a4,96(a5)
     336:	8082                	ret
     338:	400017b7          	lui	a5,0x40001
     33c:	5ff4                	lw	a3,124(a5)
     33e:	fff54713          	not	a4,a0
     342:	8ef9                	and	a3,a3,a4
     344:	dff4                	sw	a3,124(a5)
     346:	5fb4                	lw	a3,120(a5)
     348:	8ef9                	and	a3,a3,a4
     34a:	bf75                	j	306 <GPIOB_ModeCfg+0xc8>
     34c:	400017b7          	lui	a5,0x40001
     350:	5ff4                	lw	a3,124(a5)
     352:	fff54713          	not	a4,a0
     356:	8ef9                	and	a3,a3,a4
     358:	b7e9                	j	322 <GPIOB_ModeCfg+0xe4>

0000035a <log_init>:
log_init():
     35a:	1141                	addi	sp,sp,-16
     35c:	6785                	lui	a5,0x1
     35e:	c606                	sw	ra,12(sp)
     360:	97aa                	add	a5,a5,a0
     362:	00079023          	sh	zero,0(a5) # 1000 <tusb_dev_drv_send_data+0x322>
     366:	82a1a023          	sw	a0,-2016(gp) # 20000338 <debug_log_buf>
     36a:	2ced                	jal	664 <bsp_get_SysTickCNT>
     36c:	40b2                	lw	ra,12(sp)
     36e:	82a1a423          	sw	a0,-2008(gp) # 20000340 <startCNT64>
     372:	82b1a623          	sw	a1,-2004(gp) # 20000344 <startCNT64+0x4>
     376:	0141                	addi	sp,sp,16
     378:	8082                	ret

0000037a <log_printf>:
log_printf():
     37a:	db010113          	addi	sp,sp,-592
     37e:	22912223          	sw	s1,548(sp)
     382:	8281a483          	lw	s1,-2008(gp) # 20000340 <startCNT64>
     386:	24e12023          	sw	a4,576(sp)
     38a:	22112623          	sw	ra,556(sp)
     38e:	25012423          	sw	a6,584(sp)
     392:	25112623          	sw	a7,588(sp)
     396:	22812423          	sw	s0,552(sp)
     39a:	23212023          	sw	s2,544(sp)
     39e:	82c1a403          	lw	s0,-2004(gp) # 20000344 <startCNT64+0x4>
     3a2:	21312e23          	sw	s3,540(sp)
     3a6:	21412c23          	sw	s4,536(sp)
     3aa:	21512a23          	sw	s5,532(sp)
     3ae:	21612823          	sw	s6,528(sp)
     3b2:	24f12223          	sw	a5,580(sp)
     3b6:	22c12c23          	sw	a2,568(sp)
     3ba:	22d12e23          	sw	a3,572(sp)
     3be:	89aa                	mv	s3,a0
     3c0:	22b12a23          	sw	a1,564(sp)
     3c4:	2445                	jal	664 <bsp_get_SysTickCNT>
     3c6:	8301ab03          	lw	s6,-2000(gp) # 20000348 <bsp_tick_frequency>
     3ca:	40a48933          	sub	s2,s1,a0
     3ce:	0124b4b3          	sltu	s1,s1,s2
     3d2:	8c0d                	sub	s0,s0,a1
     3d4:	8c05                	sub	s0,s0,s1
     3d6:	865a                	mv	a2,s6
     3d8:	4681                	li	a3,0
     3da:	854a                	mv	a0,s2
     3dc:	85a2                	mv	a1,s0
     3de:	086030ef          	jal	ra,3464 <__udivdi3>
     3e2:	02ab04b3          	mul	s1,s6,a0
     3e6:	8381aa83          	lw	s5,-1992(gp) # 20000350 <bsp_ms_nbcycles>
     3ea:	8a2a                	mv	s4,a0
     3ec:	4681                	li	a3,0
     3ee:	8656                	mv	a2,s5
     3f0:	03653b33          	mulhu	s6,a0,s6
     3f4:	409904b3          	sub	s1,s2,s1
     3f8:	00993933          	sltu	s2,s2,s1
     3fc:	8526                	mv	a0,s1
     3fe:	41640433          	sub	s0,s0,s6
     402:	41240433          	sub	s0,s0,s2
     406:	85a2                	mv	a1,s0
     408:	05c030ef          	jal	ra,3464 <__udivdi3>
     40c:	892a                	mv	s2,a0
     40e:	02aa8533          	mul	a0,s5,a0
     412:	8401a603          	lw	a2,-1984(gp) # 20000358 <bsp_us_nbcycles>
     416:	8441a683          	lw	a3,-1980(gp) # 2000035c <bsp_us_nbcycles+0x4>
     41a:	03593ab3          	mulhu	s5,s2,s5
     41e:	40a48533          	sub	a0,s1,a0
     422:	00a4b5b3          	sltu	a1,s1,a0
     426:	41540433          	sub	s0,s0,s5
     42a:	40b405b3          	sub	a1,s0,a1
     42e:	036030ef          	jal	ra,3464 <__udivdi3>
     432:	872a                	mv	a4,a0
     434:	30047073          	csrci	mstatus,8
     438:	6595                	lui	a1,0x5
     43a:	86ca                	mv	a3,s2
     43c:	8652                	mv	a2,s4
     43e:	1a058593          	addi	a1,a1,416 # 51a0 <_conv_stat+0xa6>
     442:	0808                	addi	a0,sp,16
     444:	774030ef          	jal	ra,3bb8 <siprintf>
     448:	081c                	addi	a5,sp,16
     44a:	842a                	mv	s0,a0
     44c:	1c54                	addi	a3,sp,564
     44e:	864e                	mv	a2,s3
     450:	1ff00593          	li	a1,511
     454:	953e                	add	a0,a0,a5
     456:	c636                	sw	a3,12(sp)
     458:	009030ef          	jal	ra,3c60 <vsniprintf>
     45c:	942a                	add	s0,s0,a0
     45e:	02805163          	blez	s0,480 <log_printf+0x106>
     462:	8201a503          	lw	a0,-2016(gp) # 20000338 <debug_log_buf>
     466:	6785                	lui	a5,0x1
     468:	ffe78713          	addi	a4,a5,-2 # ffe <tusb_dev_drv_send_data+0x320>
     46c:	00f504b3          	add	s1,a0,a5
     470:	0004d783          	lhu	a5,0(s1)
     474:	008786b3          	add	a3,a5,s0
     478:	07c2                	slli	a5,a5,0x10
     47a:	83c1                	srli	a5,a5,0x10
     47c:	02d75763          	bge	a4,a3,4aa <log_printf+0x130>
     480:	30046073          	csrsi	mstatus,8
     484:	22c12083          	lw	ra,556(sp)
     488:	22812403          	lw	s0,552(sp)
     48c:	22412483          	lw	s1,548(sp)
     490:	22012903          	lw	s2,544(sp)
     494:	21c12983          	lw	s3,540(sp)
     498:	21812a03          	lw	s4,536(sp)
     49c:	21412a83          	lw	s5,532(sp)
     4a0:	21012b03          	lw	s6,528(sp)
     4a4:	25010113          	addi	sp,sp,592
     4a8:	8082                	ret
     4aa:	953e                	add	a0,a0,a5
     4ac:	8622                	mv	a2,s0
     4ae:	080c                	addi	a1,sp,16
     4b0:	3901                	jal	c0 <memcpy>
     4b2:	0004d783          	lhu	a5,0(s1)
     4b6:	97a2                	add	a5,a5,s0
     4b8:	07c2                	slli	a5,a5,0x10
     4ba:	83c1                	srli	a5,a5,0x10
     4bc:	00f49023          	sh	a5,0(s1)
     4c0:	b7c1                	j	480 <log_printf+0x106>

000004c2 <SYS_ResetExecute>:
SYS_ResetExecute():
     4c2:	400017b7          	lui	a5,0x40001
     4c6:	05700713          	li	a4,87
     4ca:	00e78023          	sb	a4,0(a5) # 40001000 <_dmadata_end+0x1ffddc00>
     4ce:	fa800713          	li	a4,-88
     4d2:	00e78023          	sb	a4,0(a5)
     4d6:	0067c703          	lbu	a4,6(a5)
     4da:	04176713          	ori	a4,a4,65
     4de:	00e78323          	sb	a4,6(a5)
     4e2:	00078023          	sb	zero,0(a5)
     4e6:	8082                	ret

000004e8 <FLASH_ROMA_READ>:
FLASH_ROMA_READ():
     4e8:	67a1                	lui	a5,0x8
     4ea:	00f50733          	add	a4,a0,a5
     4ee:	000807b7          	lui	a5,0x80
     4f2:	10f77663          	bgeu	a4,a5,5fe <FLASH_ROMA_READ+0x116>
     4f6:	00c706b3          	add	a3,a4,a2
     4fa:	4501                	li	a0,0
     4fc:	10f6f263          	bgeu	a3,a5,600 <FLASH_ROMA_READ+0x118>
     500:	478d                	li	a5,3
     502:	0ec7ff63          	bgeu	a5,a2,600 <FLASH_ROMA_READ+0x118>
     506:	400017b7          	lui	a5,0x40001
     50a:	00078d23          	sb	zero,26(a5) # 4000101a <_dmadata_end+0x1ffddc1a>
     50e:	469d                	li	a3,7
     510:	00d78d23          	sb	a3,26(a5)
     514:	01075813          	srli	a6,a4,0x10
     518:	46ad                	li	a3,11
     51a:	00d78c23          	sb	a3,24(a5)
     51e:	0ff87813          	zext.b	a6,a6
     522:	400016b7          	lui	a3,0x40001
     526:	01a6c783          	lbu	a5,26(a3) # 4000101a <_dmadata_end+0x1ffddc1a>
     52a:	07e2                	slli	a5,a5,0x18
     52c:	87e1                	srai	a5,a5,0x18
     52e:	fe07cce3          	bltz	a5,526 <FLASH_ROMA_READ+0x3e>
     532:	00875513          	srli	a0,a4,0x8
     536:	01068c23          	sb	a6,24(a3)
     53a:	0ff57513          	zext.b	a0,a0
     53e:	400016b7          	lui	a3,0x40001
     542:	01a6c783          	lbu	a5,26(a3) # 4000101a <_dmadata_end+0x1ffddc1a>
     546:	07e2                	slli	a5,a5,0x18
     548:	87e1                	srai	a5,a5,0x18
     54a:	fe07cce3          	bltz	a5,542 <FLASH_ROMA_READ+0x5a>
     54e:	00a68c23          	sb	a0,24(a3)
     552:	0ff77713          	zext.b	a4,a4
     556:	400016b7          	lui	a3,0x40001
     55a:	01a6c783          	lbu	a5,26(a3) # 4000101a <_dmadata_end+0x1ffddc1a>
     55e:	07e2                	slli	a5,a5,0x18
     560:	87e1                	srai	a5,a5,0x18
     562:	fe07cce3          	bltz	a5,55a <FLASH_ROMA_READ+0x72>
     566:	00e68c23          	sb	a4,24(a3)
     56a:	40001737          	lui	a4,0x40001
     56e:	01a74783          	lbu	a5,26(a4) # 4000101a <_dmadata_end+0x1ffddc1a>
     572:	07e2                	slli	a5,a5,0x18
     574:	87e1                	srai	a5,a5,0x18
     576:	fe07cce3          	bltz	a5,56e <FLASH_ROMA_READ+0x86>
     57a:	01874783          	lbu	a5,24(a4)
     57e:	40001737          	lui	a4,0x40001
     582:	01a74783          	lbu	a5,26(a4) # 4000101a <_dmadata_end+0x1ffddc1a>
     586:	07e2                	slli	a5,a5,0x18
     588:	87e1                	srai	a5,a5,0x18
     58a:	fe07cce3          	bltz	a5,582 <FLASH_ROMA_READ+0x9a>
     58e:	01874783          	lbu	a5,24(a4)
     592:	9a71                	andi	a2,a2,-4
     594:	962e                	add	a2,a2,a1
     596:	400017b7          	lui	a5,0x40001
     59a:	01a7c703          	lbu	a4,26(a5) # 4000101a <_dmadata_end+0x1ffddc1a>
     59e:	0762                	slli	a4,a4,0x18
     5a0:	8761                	srai	a4,a4,0x18
     5a2:	fe074ce3          	bltz	a4,59a <FLASH_ROMA_READ+0xb2>
     5a6:	0187c703          	lbu	a4,24(a5)
     5aa:	01a7c703          	lbu	a4,26(a5)
     5ae:	0762                	slli	a4,a4,0x18
     5b0:	8761                	srai	a4,a4,0x18
     5b2:	fe074ce3          	bltz	a4,5aa <FLASH_ROMA_READ+0xc2>
     5b6:	0187c703          	lbu	a4,24(a5)
     5ba:	01a7c703          	lbu	a4,26(a5)
     5be:	0762                	slli	a4,a4,0x18
     5c0:	8761                	srai	a4,a4,0x18
     5c2:	fe074ce3          	bltz	a4,5ba <FLASH_ROMA_READ+0xd2>
     5c6:	0187c703          	lbu	a4,24(a5)
     5ca:	01a7c703          	lbu	a4,26(a5)
     5ce:	0762                	slli	a4,a4,0x18
     5d0:	8761                	srai	a4,a4,0x18
     5d2:	fe074ce3          	bltz	a4,5ca <FLASH_ROMA_READ+0xe2>
     5d6:	0187c703          	lbu	a4,24(a5)
     5da:	4bd8                	lw	a4,20(a5)
     5dc:	0591                	addi	a1,a1,4
     5de:	fee5ae23          	sw	a4,-4(a1)
     5e2:	fac59ce3          	bne	a1,a2,59a <FLASH_ROMA_READ+0xb2>
     5e6:	40001737          	lui	a4,0x40001
     5ea:	01a74783          	lbu	a5,26(a4) # 4000101a <_dmadata_end+0x1ffddc1a>
     5ee:	07e2                	slli	a5,a5,0x18
     5f0:	87e1                	srai	a5,a5,0x18
     5f2:	fe07cce3          	bltz	a5,5ea <FLASH_ROMA_READ+0x102>
     5f6:	00070d23          	sb	zero,26(a4)
     5fa:	4505                	li	a0,1
     5fc:	8082                	ret
     5fe:	4501                	li	a0,0
     600:	8082                	ret

00000602 <TMR0_TimerInit>:
TMR0_TimerInit():
     602:	400027b7          	lui	a5,0x40002
     606:	c7c8                	sw	a0,12(a5)
     608:	4709                	li	a4,2
     60a:	00e78023          	sb	a4,0(a5) # 40002000 <_dmadata_end+0x1ffdec00>
     60e:	4751                	li	a4,20
     610:	00e78023          	sb	a4,0(a5)
     614:	8082                	ret

00000616 <bsp_init>:
bsp_init():
     616:	1141                	addi	sp,sp,-16
     618:	c606                	sw	ra,12(sp)
     61a:	2a1d                	jal	750 <SystemInit>
     61c:	e000f7b7          	lui	a5,0xe000f
     620:	0007aa23          	sw	zero,20(a5) # e000f014 <_dmadata_end+0xbffebc14>
     624:	577d                	li	a4,-1
     626:	c7d8                	sw	a4,12(a5)
     628:	cb98                	sw	a4,16(a5)
     62a:	c3d8                	sw	a4,4(a5)
     62c:	c798                	sw	a4,8(a5)
     62e:	10500713          	li	a4,261
     632:	c398                	sw	a4,0(a5)
     634:	245d                	jal	8da <GetSysClock>
     636:	000f47b7          	lui	a5,0xf4
     63a:	82a1a823          	sw	a0,-2000(gp) # 20000348 <bsp_tick_frequency>
     63e:	24078793          	addi	a5,a5,576 # f4240 <_data_lma+0xee9a0>
     642:	3e800613          	li	a2,1000
     646:	02f557b3          	divu	a5,a0,a5
     64a:	40b2                	lw	ra,12(sp)
     64c:	8401a223          	sw	zero,-1980(gp) # 2000035c <bsp_us_nbcycles+0x4>
     650:	8201ae23          	sw	zero,-1988(gp) # 20000354 <bsp_ms_nbcycles+0x4>
     654:	02c55533          	divu	a0,a0,a2
     658:	84f1a023          	sw	a5,-1984(gp) # 20000358 <bsp_us_nbcycles>
     65c:	82a1ac23          	sw	a0,-1992(gp) # 20000350 <bsp_ms_nbcycles>
     660:	0141                	addi	sp,sp,16
     662:	8082                	ret

00000664 <bsp_get_SysTickCNT>:
bsp_get_SysTickCNT():
     664:	e000f7b7          	lui	a5,0xe000f
     668:	4798                	lw	a4,8(a5)
     66a:	43c8                	lw	a0,4(a5)
     66c:	478c                	lw	a1,8(a5)
     66e:	fee59de3          	bne	a1,a4,668 <bsp_get_SysTickCNT+0x4>
     672:	8082                	ret

00000674 <bsp_wait_us_delay>:
bsp_wait_us_delay():
     674:	e000f7b7          	lui	a5,0xe000f
     678:	478c                	lw	a1,8(a5)
     67a:	0047a803          	lw	a6,4(a5) # e000f004 <_dmadata_end+0xbffebc04>
     67e:	4798                	lw	a4,8(a5)
     680:	fee59ce3          	bne	a1,a4,678 <bsp_wait_us_delay+0x4>
     684:	8401a783          	lw	a5,-1984(gp) # 20000358 <bsp_us_nbcycles>
     688:	8441a683          	lw	a3,-1980(gp) # 2000035c <bsp_us_nbcycles+0x4>
     68c:	02a7b733          	mulhu	a4,a5,a0
     690:	02a686b3          	mul	a3,a3,a0
     694:	9736                	add	a4,a4,a3
     696:	02a787b3          	mul	a5,a5,a0
     69a:	e709                	bnez	a4,6a4 <bsp_wait_us_delay+0x30>
     69c:	02200693          	li	a3,34
     6a0:	02d7ee63          	bltu	a5,a3,6dc <bsp_wait_us_delay+0x68>
     6a4:	fde78893          	addi	a7,a5,-34
     6a8:	00f8b7b3          	sltu	a5,a7,a5
     6ac:	177d                	addi	a4,a4,-1
     6ae:	00e78533          	add	a0,a5,a4
     6b2:	e000f7b7          	lui	a5,0xe000f
     6b6:	4798                	lw	a4,8(a5)
     6b8:	43d0                	lw	a2,4(a5)
     6ba:	4794                	lw	a3,8(a5)
     6bc:	fed71de3          	bne	a4,a3,6b6 <bsp_wait_us_delay+0x42>
     6c0:	40c80633          	sub	a2,a6,a2
     6c4:	00c836b3          	sltu	a3,a6,a2
     6c8:	40e58733          	sub	a4,a1,a4
     6cc:	8f15                	sub	a4,a4,a3
     6ce:	00e56663          	bltu	a0,a4,6da <bsp_wait_us_delay+0x66>
     6d2:	fea712e3          	bne	a4,a0,6b6 <bsp_wait_us_delay+0x42>
     6d6:	fec8f0e3          	bgeu	a7,a2,6b6 <bsp_wait_us_delay+0x42>
     6da:	8082                	ret
     6dc:	02200793          	li	a5,34
     6e0:	b7d1                	j	6a4 <bsp_wait_us_delay+0x30>

000006e2 <bsp_wait_ms_delay>:
bsp_wait_ms_delay():
     6e2:	e000f7b7          	lui	a5,0xe000f
     6e6:	478c                	lw	a1,8(a5)
     6e8:	0047a803          	lw	a6,4(a5) # e000f004 <_dmadata_end+0xbffebc04>
     6ec:	4798                	lw	a4,8(a5)
     6ee:	fee59ce3          	bne	a1,a4,6e6 <bsp_wait_ms_delay+0x4>
     6f2:	8381a783          	lw	a5,-1992(gp) # 20000350 <bsp_ms_nbcycles>
     6f6:	83c1a683          	lw	a3,-1988(gp) # 20000354 <bsp_ms_nbcycles+0x4>
     6fa:	02a7b733          	mulhu	a4,a5,a0
     6fe:	02a686b3          	mul	a3,a3,a0
     702:	9736                	add	a4,a4,a3
     704:	02a787b3          	mul	a5,a5,a0
     708:	e709                	bnez	a4,712 <bsp_wait_ms_delay+0x30>
     70a:	02200693          	li	a3,34
     70e:	02d7ee63          	bltu	a5,a3,74a <bsp_wait_ms_delay+0x68>
     712:	fde78893          	addi	a7,a5,-34
     716:	00f8b7b3          	sltu	a5,a7,a5
     71a:	177d                	addi	a4,a4,-1
     71c:	00e78533          	add	a0,a5,a4
     720:	e000f7b7          	lui	a5,0xe000f
     724:	4798                	lw	a4,8(a5)
     726:	43d0                	lw	a2,4(a5)
     728:	4794                	lw	a3,8(a5)
     72a:	fed71de3          	bne	a4,a3,724 <bsp_wait_ms_delay+0x42>
     72e:	40c80633          	sub	a2,a6,a2
     732:	00c836b3          	sltu	a3,a6,a2
     736:	40e58733          	sub	a4,a1,a4
     73a:	8f15                	sub	a4,a4,a3
     73c:	00e56663          	bltu	a0,a4,748 <bsp_wait_ms_delay+0x66>
     740:	fea712e3          	bne	a4,a0,724 <bsp_wait_ms_delay+0x42>
     744:	fec8f0e3          	bgeu	a7,a2,724 <bsp_wait_ms_delay+0x42>
     748:	8082                	ret
     74a:	02200793          	li	a5,34
     74e:	b7d1                	j	712 <bsp_wait_ms_delay+0x30>

00000750 <SystemInit>:
SystemInit():
     750:	000f47b7          	lui	a5,0xf4
     754:	24078793          	addi	a5,a5,576 # f4240 <_data_lma+0xee9a0>
     758:	02f55533          	divu	a0,a0,a5
     75c:	05000793          	li	a5,80
     760:	0ff57513          	zext.b	a0,a0
     764:	0ef50663          	beq	a0,a5,850 <__stack_size+0x50>
     768:	06a7ea63          	bltu	a5,a0,7dc <SystemInit+0x8c>
     76c:	47f9                	li	a5,30
     76e:	10f50863          	beq	a0,a5,87e <__stack_size+0x7e>
     772:	03c00793          	li	a5,60
     776:	02f51963          	bne	a0,a5,7a8 <SystemInit+0x58>
     77a:	400017b7          	lui	a5,0x40001
     77e:	05700713          	li	a4,87
     782:	00e78023          	sb	a4,0(a5) # 40001000 <_dmadata_end+0x1ffddc00>
     786:	fa800713          	li	a4,-88
     78a:	00e78023          	sb	a4,0(a5)
     78e:	04800713          	li	a4,72
     792:	00e78423          	sb	a4,8(a5)
     796:	f8200713          	li	a4,-126
     79a:	00e78523          	sb	a4,10(a5)
     79e:	400017b7          	lui	a5,0x40001
     7a2:	00078023          	sb	zero,0(a5) # 40001000 <_dmadata_end+0x1ffddc00>
     7a6:	8082                	ret
     7a8:	47bd                	li	a5,15
     7aa:	fef51ae3          	bne	a0,a5,79e <SystemInit+0x4e>
     7ae:	400017b7          	lui	a5,0x40001
     7b2:	05700713          	li	a4,87
     7b6:	00e78023          	sb	a4,0(a5) # 40001000 <_dmadata_end+0x1ffddc00>
     7ba:	fa800713          	li	a4,-88
     7be:	00e78023          	sb	a4,0(a5)
     7c2:	04200713          	li	a4,66
     7c6:	00e78423          	sb	a4,8(a5)
     7ca:	f8000713          	li	a4,-128
     7ce:	00e78523          	sb	a4,10(a5)
     7d2:	400017b7          	lui	a5,0x40001
     7d6:	00078023          	sb	zero,0(a5) # 40001000 <_dmadata_end+0x1ffddc00>
     7da:	8082                	ret
     7dc:	07800793          	li	a5,120
     7e0:	0cf50663          	beq	a0,a5,8ac <__stack_size+0xac>
     7e4:	0a000793          	li	a5,160
     7e8:	02f51963          	bne	a0,a5,81a <__stack_size+0x1a>
     7ec:	400017b7          	lui	a5,0x40001
     7f0:	05700713          	li	a4,87
     7f4:	00e78023          	sb	a4,0(a5) # 40001000 <_dmadata_end+0x1ffddc00>
     7f8:	fa800713          	li	a4,-88
     7fc:	00e78023          	sb	a4,0(a5)
     800:	04300713          	li	a4,67
     804:	00e78423          	sb	a4,8(a5)
     808:	f8200713          	li	a4,-126
     80c:	00e78523          	sb	a4,10(a5)
     810:	400017b7          	lui	a5,0x40001
     814:	00078023          	sb	zero,0(a5) # 40001000 <_dmadata_end+0x1ffddc00>
     818:	8082                	ret
     81a:	06000793          	li	a5,96
     81e:	f8f510e3          	bne	a0,a5,79e <SystemInit+0x4e>
     822:	400017b7          	lui	a5,0x40001
     826:	05700713          	li	a4,87
     82a:	00e78023          	sb	a4,0(a5) # 40001000 <_dmadata_end+0x1ffddc00>
     82e:	fa800713          	li	a4,-88
     832:	00e78023          	sb	a4,0(a5)
     836:	04500713          	li	a4,69
     83a:	00e78423          	sb	a4,8(a5)
     83e:	f8200713          	li	a4,-126
     842:	00e78523          	sb	a4,10(a5)
     846:	400017b7          	lui	a5,0x40001
     84a:	00078023          	sb	zero,0(a5) # 40001000 <_dmadata_end+0x1ffddc00>
     84e:	8082                	ret
     850:	400017b7          	lui	a5,0x40001
     854:	05700713          	li	a4,87
     858:	00e78023          	sb	a4,0(a5) # 40001000 <_dmadata_end+0x1ffddc00>
     85c:	fa800713          	li	a4,-88
     860:	00e78023          	sb	a4,0(a5)
     864:	04600713          	li	a4,70
     868:	00e78423          	sb	a4,8(a5)
     86c:	f8200713          	li	a4,-126
     870:	00e78523          	sb	a4,10(a5)
     874:	400017b7          	lui	a5,0x40001
     878:	00078023          	sb	zero,0(a5) # 40001000 <_dmadata_end+0x1ffddc00>
     87c:	8082                	ret
     87e:	400017b7          	lui	a5,0x40001
     882:	05700713          	li	a4,87
     886:	00e78023          	sb	a4,0(a5) # 40001000 <_dmadata_end+0x1ffddc00>
     88a:	fa800713          	li	a4,-88
     88e:	00e78023          	sb	a4,0(a5)
     892:	04000713          	li	a4,64
     896:	00e78423          	sb	a4,8(a5)
     89a:	f8200713          	li	a4,-126
     89e:	00e78523          	sb	a4,10(a5)
     8a2:	400017b7          	lui	a5,0x40001
     8a6:	00078023          	sb	zero,0(a5) # 40001000 <_dmadata_end+0x1ffddc00>
     8aa:	8082                	ret
     8ac:	400017b7          	lui	a5,0x40001
     8b0:	05700713          	li	a4,87
     8b4:	00e78023          	sb	a4,0(a5) # 40001000 <_dmadata_end+0x1ffddc00>
     8b8:	fa800713          	li	a4,-88
     8bc:	00e78023          	sb	a4,0(a5)
     8c0:	04400713          	li	a4,68
     8c4:	00e78423          	sb	a4,8(a5)
     8c8:	f8200713          	li	a4,-126
     8cc:	00e78523          	sb	a4,10(a5)
     8d0:	400017b7          	lui	a5,0x40001
     8d4:	00078023          	sb	zero,0(a5) # 40001000 <_dmadata_end+0x1ffddc00>
     8d8:	8082                	ret

000008da <GetSysClock>:
GetSysClock():
     8da:	400016b7          	lui	a3,0x40001
     8de:	0086c783          	lbu	a5,8(a3) # 40001008 <_dmadata_end+0x1ffddc08>
     8e2:	00a6c703          	lbu	a4,10(a3)
     8e6:	8bbd                	andi	a5,a5,15
     8e8:	8b09                	andi	a4,a4,2
     8ea:	cb19                	beqz	a4,900 <GetSysClock+0x26>
     8ec:	cb8d                	beqz	a5,91e <GetSysClock+0x44>
     8ee:	0086c783          	lbu	a5,8(a3)
     8f2:	1c9c4537          	lui	a0,0x1c9c4
     8f6:	80050513          	addi	a0,a0,-2048 # 1c9c3800 <_data_lma+0x1c9bdf60>
     8fa:	02f54533          	div	a0,a0,a5
     8fe:	8082                	ret
     900:	cb91                	beqz	a5,914 <GetSysClock+0x3a>
     902:	0086c783          	lbu	a5,8(a3)
     906:	01c9c537          	lui	a0,0x1c9c
     90a:	38050513          	addi	a0,a0,896 # 1c9c380 <_data_lma+0x1c96ae0>
     90e:	02f54533          	div	a0,a0,a5
     912:	8082                	ret
     914:	001e8537          	lui	a0,0x1e8
     918:	48050513          	addi	a0,a0,1152 # 1e8480 <_data_lma+0x1e2be0>
     91c:	8082                	ret
     91e:	01c9c537          	lui	a0,0x1c9c
     922:	38050513          	addi	a0,a0,896 # 1c9c380 <_data_lma+0x1c96ae0>
     926:	8082                	ret

00000928 <UART2_init>:
UART2_init():
     928:	00259793          	slli	a5,a1,0x2
     92c:	95be                	add	a1,a1,a5
     92e:	058a                	slli	a1,a1,0x2
     930:	8191                	srli	a1,a1,0x4
     932:	02a5d5b3          	divu	a1,a1,a0
     936:	46a9                	li	a3,10
     938:	400047b7          	lui	a5,0x40004
     93c:	4705                	li	a4,1
     93e:	80e78723          	sb	a4,-2034(a5) # 4000380e <_dmadata_end+0x1ffe040e>
     942:	40001737          	lui	a4,0x40001
     946:	0595                	addi	a1,a1,5
     948:	02d5d5b3          	divu	a1,a1,a3
     94c:	fc700693          	li	a3,-57
     950:	05c2                	slli	a1,a1,0x10
     952:	81c1                	srli	a1,a1,0x10
     954:	80b79623          	sh	a1,-2036(a5)
     958:	80d78123          	sb	a3,-2046(a5)
     95c:	468d                	li	a3,3
     95e:	80d781a3          	sb	a3,-2045(a5)
     962:	04000693          	li	a3,64
     966:	80d780a3          	sb	a3,-2047(a5)
     96a:	4f7c                	lw	a5,92(a4)
     96c:	00c7e793          	ori	a5,a5,12
     970:	cf7c                	sw	a5,92(a4)
     972:	433c                	lw	a5,64(a4)
     974:	0087e793          	ori	a5,a5,8
     978:	c33c                	sw	a5,64(a4)
     97a:	8082                	ret

0000097c <UART2_ByteTrigCfg>:
UART2_ByteTrigCfg():
     97c:	40004737          	lui	a4,0x40004
     980:	80274783          	lbu	a5,-2046(a4) # 40003802 <_dmadata_end+0x1ffe0402>
     984:	051a                	slli	a0,a0,0x6
     986:	03f7f793          	andi	a5,a5,63
     98a:	8fc9                	or	a5,a5,a0
     98c:	0ff7f793          	zext.b	a5,a5
     990:	80f70123          	sb	a5,-2046(a4)
     994:	8082                	ret

00000996 <UART2_INTCfg>:
UART2_INTCfg():
     996:	cd19                	beqz	a0,9b4 <UART2_INTCfg+0x1e>
     998:	400047b7          	lui	a5,0x40004
     99c:	8017c703          	lbu	a4,-2047(a5) # 40003801 <_dmadata_end+0x1ffe0401>
     9a0:	8f4d                	or	a4,a4,a1
     9a2:	80e780a3          	sb	a4,-2047(a5)
     9a6:	8007c703          	lbu	a4,-2048(a5)
     9aa:	00876713          	ori	a4,a4,8
     9ae:	80e78023          	sb	a4,-2048(a5)
     9b2:	8082                	ret
     9b4:	40004737          	lui	a4,0x40004
     9b8:	80174783          	lbu	a5,-2047(a4) # 40003801 <_dmadata_end+0x1ffe0401>
     9bc:	fff5c593          	not	a1,a1
     9c0:	8fed                	and	a5,a5,a1
     9c2:	80f700a3          	sb	a5,-2047(a4)
     9c6:	8082                	ret

000009c8 <stdout_sendchar>:
stdout_sendchar():
     9c8:	8082                	ret

000009ca <_write>:
_write():
     9ca:	1101                	addi	sp,sp,-32
     9cc:	ce06                	sw	ra,28(sp)
     9ce:	cc22                	sw	s0,24(sp)
     9d0:	ca26                	sw	s1,20(sp)
     9d2:	c84a                	sw	s2,16(sp)
     9d4:	c64e                	sw	s3,12(sp)
     9d6:	157d                	addi	a0,a0,-1
     9d8:	4785                	li	a5,1
     9da:	04a7ea63          	bltu	a5,a0,a2e <_write+0x64>
     9de:	89b2                	mv	s3,a2
     9e0:	02c05f63          	blez	a2,a1e <_write+0x54>
     9e4:	842e                	mv	s0,a1
     9e6:	00c58933          	add	s2,a1,a2
     9ea:	44a9                	li	s1,10
     9ec:	00040503          	lb	a0,0(s0)
     9f0:	00950e63          	beq	a0,s1,a0c <_write+0x42>
     9f4:	0405                	addi	s0,s0,1
     9f6:	3fc9                	jal	9c8 <stdout_sendchar>
     9f8:	ff241ae3          	bne	s0,s2,9ec <_write+0x22>
     9fc:	854e                	mv	a0,s3
     9fe:	40f2                	lw	ra,28(sp)
     a00:	4462                	lw	s0,24(sp)
     a02:	44d2                	lw	s1,20(sp)
     a04:	4942                	lw	s2,16(sp)
     a06:	49b2                	lw	s3,12(sp)
     a08:	6105                	addi	sp,sp,32
     a0a:	8082                	ret
     a0c:	4535                	li	a0,13
     a0e:	3f6d                	jal	9c8 <stdout_sendchar>
     a10:	00040503          	lb	a0,0(s0)
     a14:	0405                	addi	s0,s0,1
     a16:	3f4d                	jal	9c8 <stdout_sendchar>
     a18:	fc891ae3          	bne	s2,s0,9ec <_write+0x22>
     a1c:	b7c5                	j	9fc <_write+0x32>
     a1e:	40f2                	lw	ra,28(sp)
     a20:	4462                	lw	s0,24(sp)
     a22:	44d2                	lw	s1,20(sp)
     a24:	4942                	lw	s2,16(sp)
     a26:	49b2                	lw	s3,12(sp)
     a28:	4501                	li	a0,0
     a2a:	6105                	addi	sp,sp,32
     a2c:	8082                	ret
     a2e:	595020ef          	jal	ra,37c2 <__errno>
     a32:	4795                	li	a5,5
     a34:	c11c                	sw	a5,0(a0)
     a36:	557d                	li	a0,-1
     a38:	b7d9                	j	9fe <_write+0x34>

00000a3a <tusb_cdc_device_send_done>:
tusb_cdc_device_send_done():
     a3a:	00854803          	lbu	a6,8(a0)
     a3e:	872e                	mv	a4,a1
     a40:	85b2                	mv	a1,a2
     a42:	00e80c63          	beq	a6,a4,a5a <tusb_cdc_device_send_done+0x20>
     a46:	00a54683          	lbu	a3,10(a0)
     a4a:	00e68463          	beq	a3,a4,a52 <tusb_cdc_device_send_done+0x18>
     a4e:	4501                	li	a0,0
     a50:	8082                	ret
     a52:	000505a3          	sb	zero,11(a0)
     a56:	4501                	li	a0,0
     a58:	8082                	ret
     a5a:	491c                	lw	a5,16(a0)
     a5c:	dbed                	beqz	a5,a4e <tusb_cdc_device_send_done+0x14>
     a5e:	01069613          	slli	a2,a3,0x10
     a62:	8241                	srli	a2,a2,0x10
     a64:	8782                	jr	a5

00000a66 <tusb_cdc_device_recv_done>:
tusb_cdc_device_recv_done():
     a66:	455c                	lw	a5,12(a0)
     a68:	85b2                	mv	a1,a2
     a6a:	c789                	beqz	a5,a74 <tusb_cdc_device_recv_done+0xe>
     a6c:	01069613          	slli	a2,a3,0x10
     a70:	8241                	srli	a2,a2,0x10
     a72:	8782                	jr	a5
     a74:	4501                	li	a0,0
     a76:	8082                	ret

00000a78 <tusb_cdc_device_init>:
tusb_cdc_device_init():
     a78:	411c                	lw	a5,0(a0)
     a7a:	1141                	addi	sp,sp,-16
     a7c:	c606                	sw	ra,12(sp)
     a7e:	c422                	sw	s0,8(sp)
     a80:	4d14                	lw	a3,24(a0)
     a82:	842a                	mv	s0,a0
     a84:	4950                	lw	a2,20(a0)
     a86:	00954583          	lbu	a1,9(a0)
     a8a:	4388                	lw	a0,0(a5)
     a8c:	2b51                	jal	1020 <tusb_dev_drv_set_recv_buffer>
     a8e:	401c                	lw	a5,0(s0)
     a90:	00944583          	lbu	a1,9(s0)
     a94:	4388                	lw	a0,0(a5)
     a96:	2bcd                	jal	1088 <tusb_dev_drv_set_rx_valid>
     a98:	00a44783          	lbu	a5,10(s0)
     a9c:	000405a3          	sb	zero,11(s0)
     aa0:	4699                	li	a3,6
     aa2:	fff78713          	addi	a4,a5,-1
     aa6:	0ff77713          	zext.b	a4,a4
     aaa:	00e6e863          	bltu	a3,a4,aba <tusb_cdc_device_init+0x42>
     aae:	4018                	lw	a4,0(s0)
     ab0:	07bd                	addi	a5,a5,15
     ab2:	078a                	slli	a5,a5,0x2
     ab4:	4358                	lw	a4,4(a4)
     ab6:	97ba                	add	a5,a5,a4
     ab8:	c780                	sw	s0,8(a5)
     aba:	40b2                	lw	ra,12(sp)
     abc:	4422                	lw	s0,8(sp)
     abe:	4501                	li	a0,0
     ac0:	0141                	addi	sp,sp,16
     ac2:	8082                	ret

00000ac4 <cdc_ctrl.isra.0>:
cdc_ctrl.isra.0():
     ac4:	1141                	addi	sp,sp,-16
     ac6:	c422                	sw	s0,8(sp)
     ac8:	c606                	sw	ra,12(sp)
     aca:	0015c703          	lbu	a4,1(a1)
     ace:	02200693          	li	a3,34
     ad2:	842e                	mv	s0,a1
     ad4:	87aa                	mv	a5,a0
     ad6:	10d70963          	beq	a4,a3,be8 <cdc_ctrl.isra.0+0x124>
     ada:	08e6e063          	bltu	a3,a4,b5a <cdc_ctrl.isra.0+0x96>
     ade:	02000693          	li	a3,32
     ae2:	0ad70363          	beq	a4,a3,b88 <cdc_ctrl.isra.0+0xc4>
     ae6:	02100693          	li	a3,33
     aea:	08d71b63          	bne	a4,a3,b80 <cdc_ctrl.isra.0+0xbc>
     aee:	5558                	lw	a4,44(a0)
     af0:	6815                	lui	a6,0x5
     af2:	27080813          	addi	a6,a6,624 # 5270 <stop_name>
     af6:	00e60023          	sb	a4,0(a2)
     afa:	5554                	lw	a3,44(a0)
     afc:	6715                	lui	a4,0x5
     afe:	82a1                	srli	a3,a3,0x8
     b00:	00d600a3          	sb	a3,1(a2)
     b04:	02e55683          	lhu	a3,46(a0)
     b08:	6515                	lui	a0,0x5
     b0a:	1e050513          	addi	a0,a0,480 # 51e0 <_conv_stat+0xe6>
     b0e:	00d60123          	sb	a3,2(a2)
     b12:	02f7c683          	lbu	a3,47(a5)
     b16:	00d601a3          	sb	a3,3(a2)
     b1a:	0307c683          	lbu	a3,48(a5)
     b1e:	00d60223          	sb	a3,4(a2)
     b22:	0317c683          	lbu	a3,49(a5)
     b26:	00d602a3          	sb	a3,5(a2)
     b2a:	0327c683          	lbu	a3,50(a5)
     b2e:	00d60323          	sb	a3,6(a2)
     b32:	0307c603          	lbu	a2,48(a5)
     b36:	0317c883          	lbu	a7,49(a5)
     b3a:	57cc                	lw	a1,44(a5)
     b3c:	00261793          	slli	a5,a2,0x2
     b40:	983e                	add	a6,a6,a5
     b42:	24c70793          	addi	a5,a4,588 # 524c <_conv_stat+0x152>
     b46:	4422                	lw	s0,8(sp)
     b48:	97c6                	add	a5,a5,a7
     b4a:	40b2                	lw	ra,12(sp)
     b4c:	00082703          	lw	a4,0(a6)
     b50:	00078603          	lb	a2,0(a5)
     b54:	0141                	addi	sp,sp,16
     b56:	6770206f          	j	39cc <iprintf>
     b5a:	02300693          	li	a3,35
     b5e:	02d71163          	bne	a4,a3,b80 <cdc_ctrl.isra.0+0xbc>
     b62:	515c                	lw	a5,36(a0)
     b64:	c781                	beqz	a5,b6c <cdc_ctrl.isra.0+0xa8>
     b66:	0025d583          	lhu	a1,2(a1)
     b6a:	9782                	jalr	a5
     b6c:	00245583          	lhu	a1,2(s0)
     b70:	4422                	lw	s0,8(sp)
     b72:	40b2                	lw	ra,12(sp)
     b74:	6515                	lui	a0,0x5
     b76:	23050513          	addi	a0,a0,560 # 5230 <_conv_stat+0x136>
     b7a:	0141                	addi	sp,sp,16
     b7c:	6510206f          	j	39cc <iprintf>
     b80:	40b2                	lw	ra,12(sp)
     b82:	4422                	lw	s0,8(sp)
     b84:	0141                	addi	sp,sp,16
     b86:	8082                	ret
     b88:	00164683          	lbu	a3,1(a2)
     b8c:	00064503          	lbu	a0,0(a2)
     b90:	00264703          	lbu	a4,2(a2)
     b94:	00364583          	lbu	a1,3(a2)
     b98:	06a2                	slli	a3,a3,0x8
     b9a:	8ec9                	or	a3,a3,a0
     b9c:	0742                	slli	a4,a4,0x10
     b9e:	8f55                	or	a4,a4,a3
     ba0:	05e2                	slli	a1,a1,0x18
     ba2:	8dd9                	or	a1,a1,a4
     ba4:	d7cc                	sw	a1,44(a5)
     ba6:	00464703          	lbu	a4,4(a2)
     baa:	6515                	lui	a0,0x5
     bac:	27050513          	addi	a0,a0,624 # 5270 <stop_name>
     bb0:	02e78823          	sb	a4,48(a5)
     bb4:	00564883          	lbu	a7,5(a2)
     bb8:	00271813          	slli	a6,a4,0x2
     bbc:	6715                	lui	a4,0x5
     bbe:	031788a3          	sb	a7,49(a5)
     bc2:	00664683          	lbu	a3,6(a2)
     bc6:	24c70613          	addi	a2,a4,588 # 524c <_conv_stat+0x152>
     bca:	9542                	add	a0,a0,a6
     bcc:	02d78923          	sb	a3,50(a5)
     bd0:	4422                	lw	s0,8(sp)
     bd2:	9646                	add	a2,a2,a7
     bd4:	4118                	lw	a4,0(a0)
     bd6:	40b2                	lw	ra,12(sp)
     bd8:	00060603          	lb	a2,0(a2)
     bdc:	6515                	lui	a0,0x5
     bde:	1b850513          	addi	a0,a0,440 # 51b8 <_conv_stat+0xbe>
     be2:	0141                	addi	sp,sp,16
     be4:	5e90206f          	j	39cc <iprintf>
     be8:	511c                	lw	a5,32(a0)
     bea:	c781                	beqz	a5,bf2 <cdc_ctrl.isra.0+0x12e>
     bec:	0025d583          	lhu	a1,2(a1)
     bf0:	9782                	jalr	a5
     bf2:	00245583          	lhu	a1,2(s0)
     bf6:	4422                	lw	s0,8(sp)
     bf8:	40b2                	lw	ra,12(sp)
     bfa:	4015d613          	srai	a2,a1,0x1
     bfe:	6515                	lui	a0,0x5
     c00:	20850513          	addi	a0,a0,520 # 5208 <_conv_stat+0x10e>
     c04:	8a05                	andi	a2,a2,1
     c06:	8985                	andi	a1,a1,1
     c08:	0141                	addi	sp,sp,16
     c0a:	5c30206f          	j	39cc <iprintf>

00000c0e <cdc_dataout_request>:
cdc_dataout_request():
     c0e:	4150                	lw	a2,4(a0)
     c10:	01455783          	lhu	a5,20(a0)
     c14:	1141                	addi	sp,sp,-16
     c16:	4218                	lw	a4,0(a2)
     c18:	c422                	sw	s0,8(sp)
     c1a:	c606                	sw	ra,12(sp)
     c1c:	c226                	sw	s1,4(sp)
     c1e:	842a                	mv	s0,a0
     c20:	00e7ec63          	bltu	a5,a4,c38 <cdc_dataout_request+0x2a>
     c24:	4008                	lw	a0,0(s0)
     c26:	4422                	lw	s0,8(sp)
     c28:	40b2                	lw	ra,12(sp)
     c2a:	4492                	lw	s1,4(sp)
     c2c:	4701                	li	a4,0
     c2e:	4681                	li	a3,0
     c30:	4601                	li	a2,0
     c32:	4581                	li	a1,0
     c34:	0141                	addi	sp,sp,16
     c36:	a065                	j	cde <tusb_dev_drv_send_data>
     c38:	4258                	lw	a4,4(a2)
     c3a:	078a                	slli	a5,a5,0x2
     c3c:	01050593          	addi	a1,a0,16
     c40:	973e                	add	a4,a4,a5
     c42:	4304                	lw	s1,0(a4)
     c44:	0621                	addi	a2,a2,8
     c46:	8526                	mv	a0,s1
     c48:	3db5                	jal	ac4 <cdc_ctrl.isra.0>
     c4a:	4cdc                	lw	a5,28(s1)
     c4c:	dfe1                	beqz	a5,c24 <cdc_dataout_request+0x16>
     c4e:	8526                	mv	a0,s1
     c50:	9782                	jalr	a5
     c52:	bfc9                	j	c24 <cdc_dataout_request+0x16>

00000c54 <tusb_cdc_device_request>:
tusb_cdc_device_request():
     c54:	0005c703          	lbu	a4,0(a1)
     c58:	02000693          	li	a3,32
     c5c:	06077613          	andi	a2,a4,96
     c60:	00d60463          	beq	a2,a3,c68 <tusb_cdc_device_request+0x14>
     c64:	4501                	li	a0,0
     c66:	8082                	ret
     c68:	1101                	addi	sp,sp,-32
     c6a:	ca26                	sw	s1,20(sp)
     c6c:	4104                	lw	s1,0(a0)
     c6e:	0065d683          	lhu	a3,6(a1)
     c72:	cc22                	sw	s0,24(sp)
     c74:	40d0                	lw	a2,4(s1)
     c76:	ce06                	sw	ra,28(sp)
     c78:	842e                	mv	s0,a1
     c7a:	0621                	addi	a2,a2,8
     c7c:	caa9                	beqz	a3,cce <tusb_cdc_device_request+0x7a>
     c7e:	0762                	slli	a4,a4,0x18
     c80:	8761                	srai	a4,a4,0x18
     c82:	02074263          	bltz	a4,ca6 <tusb_cdc_device_request+0x52>
     c86:	4088                	lw	a0,0(s1)
     c88:	4581                	li	a1,0
     c8a:	2e59                	jal	1020 <tusb_dev_drv_set_recv_buffer>
     c8c:	4088                	lw	a0,0(s1)
     c8e:	4581                	li	a1,0
     c90:	2ee5                	jal	1088 <tusb_dev_drv_set_rx_valid>
     c92:	6785                	lui	a5,0x1
     c94:	c0e78793          	addi	a5,a5,-1010 # c0e <cdc_dataout_request>
     c98:	c4dc                	sw	a5,12(s1)
     c9a:	40f2                	lw	ra,28(sp)
     c9c:	4462                	lw	s0,24(sp)
     c9e:	44d2                	lw	s1,20(sp)
     ca0:	4505                	li	a0,1
     ca2:	6105                	addi	sp,sp,32
     ca4:	8082                	ret
     ca6:	c632                	sw	a2,12(sp)
     ca8:	3d31                	jal	ac4 <cdc_ctrl.isra.0>
     caa:	00645683          	lhu	a3,6(s0)
     cae:	0164d703          	lhu	a4,22(s1)
     cb2:	4088                	lw	a0,0(s1)
     cb4:	4632                	lw	a2,12(sp)
     cb6:	8f15                	sub	a4,a4,a3
     cb8:	00e03733          	snez	a4,a4
     cbc:	071e                	slli	a4,a4,0x7
     cbe:	4581                	li	a1,0
     cc0:	2839                	jal	cde <tusb_dev_drv_send_data>
     cc2:	40f2                	lw	ra,28(sp)
     cc4:	4462                	lw	s0,24(sp)
     cc6:	44d2                	lw	s1,20(sp)
     cc8:	4505                	li	a0,1
     cca:	6105                	addi	sp,sp,32
     ccc:	8082                	ret
     cce:	3bdd                	jal	ac4 <cdc_ctrl.isra.0>
     cd0:	4088                	lw	a0,0(s1)
     cd2:	4701                	li	a4,0
     cd4:	4681                	li	a3,0
     cd6:	4601                	li	a2,0
     cd8:	4581                	li	a1,0
     cda:	2011                	jal	cde <tusb_dev_drv_send_data>
     cdc:	bf7d                	j	c9a <tusb_cdc_device_request+0x46>

00000cde <tusb_dev_drv_send_data>:
tusb_dev_drv_send_data():
     cde:	7179                	addi	sp,sp,-48
     ce0:	d422                	sw	s0,40(sp)
     ce2:	d606                	sw	ra,44(sp)
     ce4:	d226                	sw	s1,36(sp)
     ce6:	d04a                	sw	s2,32(sp)
     ce8:	ce4e                	sw	s3,28(sp)
     cea:	cc52                	sw	s4,24(sp)
     cec:	ca56                	sw	s5,20(sp)
     cee:	c85a                	sw	s6,16(sp)
     cf0:	c65e                	sw	s7,12(sp)
     cf2:	07f5f793          	andi	a5,a1,127
     cf6:	842a                	mv	s0,a0
     cf8:	8832                	mv	a6,a2
     cfa:	cfc1                	beqz	a5,d92 <tusb_dev_drv_send_data+0xb4>
     cfc:	00f67513          	andi	a0,a2,15
     d00:	2e051563          	bnez	a0,fea <tusb_dev_drv_send_data+0x30c>
     d04:	dffe0637          	lui	a2,0xdffe0
     d08:	9642                	add	a2,a2,a6
     d0a:	68a1                	lui	a7,0x8
     d0c:	31167363          	bgeu	a2,a7,1012 <tusb_dev_drv_send_data+0x334>
     d10:	00379893          	slli	a7,a5,0x3
     d14:	40f88633          	sub	a2,a7,a5
     d18:	060a                	slli	a2,a2,0x2
     d1a:	9622                	add	a2,a2,s0
     d1c:	831d                	srli	a4,a4,0x7
     d1e:	00e60f23          	sb	a4,30(a2) # dffe001e <_dmadata_end+0xbffbcc1e>
     d22:	01062223          	sw	a6,4(a2)
     d26:	c654                	sw	a3,12(a2)
     d28:	00062823          	sw	zero,16(a2)
     d2c:	11d44603          	lbu	a2,285(s0)
     d30:	4705                	li	a4,1
     d32:	1ae60363          	beq	a2,a4,ed8 <tusb_dev_drv_send_data+0x1fa>
     d36:	08d04063          	bgtz	a3,db6 <tusb_dev_drv_send_data+0xd8>
     d3a:	4981                	li	s3,0
     d3c:	04000693          	li	a3,64
     d40:	6741                	lui	a4,0x10
     d42:	4481                	li	s1,0
     d44:	40f888b3          	sub	a7,a7,a5
     d48:	40008637          	lui	a2,0x40008
     d4c:	088a                	slli	a7,a7,0x2
     d4e:	07c60813          	addi	a6,a2,124 # 4000807c <_dmadata_end+0x1ffe4c7c>
     d52:	98a2                	add	a7,a7,s0
     d54:	0792                	slli	a5,a5,0x4
     d56:	01389e23          	sh	s3,28(a7) # 801c <_data_lma+0x277c>
     d5a:	97c2                	add	a5,a5,a6
     d5c:	0007a803          	lw	a6,0(a5)
     d60:	8f49                	or	a4,a4,a0
     d62:	89bd                	andi	a1,a1,15
     d64:	01076733          	or	a4,a4,a6
     d68:	058a                	slli	a1,a1,0x2
     d6a:	14000537          	lui	a0,0x14000
     d6e:	8f49                	or	a4,a4,a0
     d70:	8dd5                	or	a1,a1,a3
     d72:	c398                	sw	a4,0(a5)
     d74:	0035e593          	ori	a1,a1,3
     d78:	c26c                	sw	a1,68(a2)
     d7a:	50b2                	lw	ra,44(sp)
     d7c:	5422                	lw	s0,40(sp)
     d7e:	5902                	lw	s2,32(sp)
     d80:	49f2                	lw	s3,28(sp)
     d82:	4a62                	lw	s4,24(sp)
     d84:	4ad2                	lw	s5,20(sp)
     d86:	4b42                	lw	s6,16(sp)
     d88:	4bb2                	lw	s7,12(sp)
     d8a:	8526                	mv	a0,s1
     d8c:	5492                	lw	s1,36(sp)
     d8e:	6145                	addi	sp,sp,48
     d90:	8082                	ret
     d92:	831d                	srli	a4,a4,0x7
     d94:	ca4d                	beqz	a2,e46 <tusb_dev_drv_send_data+0x168>
     d96:	10040f23          	sb	zero,286(s0)
     d9a:	11d44603          	lbu	a2,285(s0)
     d9e:	00e40f23          	sb	a4,30(s0)
     da2:	01042223          	sw	a6,4(s0)
     da6:	c454                	sw	a3,12(s0)
     da8:	00042823          	sw	zero,16(s0)
     dac:	4705                	li	a4,1
     dae:	0ae60e63          	beq	a2,a4,e6a <tusb_dev_drv_send_data+0x18c>
     db2:	20d05363          	blez	a3,fb8 <tusb_dev_drv_send_data+0x2da>
     db6:	00179b13          	slli	s6,a5,0x1
     dba:	9b22                	add	s6,s6,s0
     dbc:	00f40733          	add	a4,s0,a5
     dc0:	0e4b5483          	lhu	s1,228(s6)
     dc4:	10474a83          	lbu	s5,260(a4) # 10104 <_data_lma+0xa864>
     dc8:	029a8ab3          	mul	s5,s5,s1
     dcc:	8656                	mv	a2,s5
     dce:	06daf963          	bgeu	s5,a3,e40 <tusb_dev_drv_send_data+0x162>
     dd2:	015486b3          	add	a3,s1,s5
     dd6:	16fd                	addi	a3,a3,-1
     dd8:	0296c6b3          	div	a3,a3,s1
     ddc:	010a9993          	slli	s3,s5,0x10
     de0:	0109d993          	srli	s3,s3,0x10
     de4:	0ff6f913          	zext.b	s2,a3
     de8:	0ff6fa13          	zext.b	s4,a3
     dec:	fff90b93          	addi	s7,s2,-1
     df0:	14078a63          	beqz	a5,f44 <tusb_dev_drv_send_data+0x266>
     df4:	037484b3          	mul	s1,s1,s7
     df8:	fff78513          	addi	a0,a5,-1
     dfc:	00379893          	slli	a7,a5,0x3
     e00:	40008737          	lui	a4,0x40008
     e04:	08070713          	addi	a4,a4,128 # 40008080 <_dmadata_end+0x1ffe4c80>
     e08:	0512                	slli	a0,a0,0x4
     e0a:	40f88633          	sub	a2,a7,a5
     e0e:	953a                	add	a0,a0,a4
     e10:	060a                	slli	a2,a2,0x2
     e12:	01052023          	sw	a6,0(a0) # 14000000 <_data_lma+0x13ffa760>
     e16:	9622                	add	a2,a2,s0
     e18:	4a14                	lw	a3,16(a2)
     e1a:	4658                	lw	a4,12(a2)
     e1c:	409a84b3          	sub	s1,s5,s1
     e20:	96d6                	add	a3,a3,s5
     e22:	41570733          	sub	a4,a4,s5
     e26:	c658                	sw	a4,12(a2)
     e28:	ca14                	sw	a3,16(a2)
     e2a:	40000713          	li	a4,1024
     e2e:	08e48b63          	beq	s1,a4,ec4 <tusb_dev_drv_send_data+0x1e6>
     e32:	00691693          	slli	a3,s2,0x6
     e36:	01091713          	slli	a4,s2,0x10
     e3a:	3ff4f513          	andi	a0,s1,1023
     e3e:	b719                	j	d44 <tusb_dev_drv_send_data+0x66>
     e40:	8636                	mv	a2,a3
     e42:	8ab6                	mv	s5,a3
     e44:	b779                	j	dd2 <tusb_dev_drv_send_data+0xf4>
     e46:	10040f23          	sb	zero,286(s0)
     e4a:	20020837          	lui	a6,0x20020
     e4e:	11d44603          	lbu	a2,285(s0)
     e52:	00080813          	mv	a6,a6
     e56:	00e40f23          	sb	a4,30(s0)
     e5a:	01042223          	sw	a6,4(s0)
     e5e:	c454                	sw	a3,12(s0)
     e60:	00042823          	sw	zero,16(s0)
     e64:	4705                	li	a4,1
     e66:	f4e616e3          	bne	a2,a4,db2 <tusb_dev_drv_send_data+0xd4>
     e6a:	4901                	li	s2,0
     e6c:	4481                	li	s1,0
     e6e:	02d05963          	blez	a3,ea0 <tusb_dev_drv_send_data+0x1c2>
     e72:	0e445903          	lhu	s2,228(s0)
     e76:	8636                	mv	a2,a3
     e78:	16d96663          	bltu	s2,a3,fe4 <tusb_dev_drv_send_data+0x306>
     e7c:	01069913          	slli	s2,a3,0x10
     e80:	01095913          	srli	s2,s2,0x10
     e84:	84b6                	mv	s1,a3
     e86:	20020537          	lui	a0,0x20020
     e8a:	85c2                	mv	a1,a6
     e8c:	00050513          	mv	a0,a0
     e90:	a30ff0ef          	jal	ra,c0 <memcpy>
     e94:	4818                	lw	a4,16(s0)
     e96:	445c                	lw	a5,12(s0)
     e98:	9726                	add	a4,a4,s1
     e9a:	8f85                	sub	a5,a5,s1
     e9c:	c818                	sw	a4,16(s0)
     e9e:	c45c                	sw	a5,12(s0)
     ea0:	11e44783          	lbu	a5,286(s0)
     ea4:	01241e23          	sh	s2,28(s0)
     ea8:	40009737          	lui	a4,0x40009
     eac:	0017b793          	seqz	a5,a5
     eb0:	07ce                	slli	a5,a5,0x13
     eb2:	8fc5                	or	a5,a5,s1
     eb4:	db3c                	sw	a5,112(a4)
     eb6:	11e44783          	lbu	a5,286(s0)
     eba:	0017c793          	xori	a5,a5,1
     ebe:	10f40f23          	sb	a5,286(s0)
     ec2:	bd65                	j	d7a <tusb_dev_drv_send_data+0x9c>
     ec4:	001a0693          	addi	a3,s4,1
     ec8:	0ff6f693          	zext.b	a3,a3
     ecc:	01069713          	slli	a4,a3,0x10
     ed0:	4501                	li	a0,0
     ed2:	069a                	slli	a3,a3,0x6
     ed4:	4481                	li	s1,0
     ed6:	b5bd                	j	d44 <tusb_dev_drv_send_data+0x66>
     ed8:	4601                	li	a2,0
     eda:	4481                	li	s1,0
     edc:	04d05163          	blez	a3,f1e <tusb_dev_drv_send_data+0x240>
     ee0:	07078713          	addi	a4,a5,112
     ee4:	0706                	slli	a4,a4,0x1
     ee6:	9722                	add	a4,a4,s0
     ee8:	00475603          	lhu	a2,4(a4) # 40009004 <_dmadata_end+0x1ffe5c04>
     eec:	8536                	mv	a0,a3
     eee:	0ed67663          	bgeu	a2,a3,fda <tusb_dev_drv_send_data+0x2fc>
     ef2:	84b2                	mv	s1,a2
     ef4:	8532                	mv	a0,a2
     ef6:	fff78693          	addi	a3,a5,-1
     efa:	400095b7          	lui	a1,0x40009
     efe:	03458593          	addi	a1,a1,52 # 40009034 <_dmadata_end+0x1ffe5c34>
     f02:	0692                	slli	a3,a3,0x4
     f04:	40f88733          	sub	a4,a7,a5
     f08:	96ae                	add	a3,a3,a1
     f0a:	070a                	slli	a4,a4,0x2
     f0c:	0106a023          	sw	a6,0(a3)
     f10:	9722                	add	a4,a4,s0
     f12:	4b0c                	lw	a1,16(a4)
     f14:	4754                	lw	a3,12(a4)
     f16:	95a6                	add	a1,a1,s1
     f18:	8e85                	sub	a3,a3,s1
     f1a:	cb0c                	sw	a1,16(a4)
     f1c:	c754                	sw	a3,12(a4)
     f1e:	40f888b3          	sub	a7,a7,a5
     f22:	088a                	slli	a7,a7,0x2
     f24:	40009737          	lui	a4,0x40009
     f28:	07070713          	addi	a4,a4,112 # 40009070 <_dmadata_end+0x1ffe5c70>
     f2c:	98a2                	add	a7,a7,s0
     f2e:	078a                	slli	a5,a5,0x2
     f30:	00c89e23          	sh	a2,28(a7)
     f34:	97ba                	add	a5,a5,a4
     f36:	4398                	lw	a4,0(a5)
     f38:	fffc06b7          	lui	a3,0xfffc0
     f3c:	8f75                	and	a4,a4,a3
     f3e:	8f49                	or	a4,a4,a0
     f40:	c398                	sw	a4,0(a5)
     f42:	bd25                	j	d7a <tusb_dev_drv_send_data+0x9c>
     f44:	481c                	lw	a5,16(s0)
     f46:	404c                	lw	a1,4(s0)
     f48:	20020537          	lui	a0,0x20020
     f4c:	00050513          	mv	a0,a0
     f50:	95be                	add	a1,a1,a5
     f52:	96eff0ef          	jal	ra,c0 <memcpy>
     f56:	4818                	lw	a4,16(s0)
     f58:	445c                	lw	a5,12(s0)
     f5a:	01341e23          	sh	s3,28(s0)
     f5e:	9756                	add	a4,a4,s5
     f60:	415787b3          	sub	a5,a5,s5
     f64:	c45c                	sw	a5,12(s0)
     f66:	c818                	sw	a4,16(s0)
     f68:	0e4b5483          	lhu	s1,228(s6)
     f6c:	40000793          	li	a5,1024
     f70:	037484b3          	mul	s1,s1,s7
     f74:	409a84b3          	sub	s1,s5,s1
     f78:	08f48063          	beq	s1,a5,ff8 <tusb_dev_drv_send_data+0x31a>
     f7c:	00691693          	slli	a3,s2,0x6
     f80:	01091713          	slli	a4,s2,0x10
     f84:	0036e693          	ori	a3,a3,3
     f88:	c0d9                	beqz	s1,100e <tusb_dev_drv_send_data+0x330>
     f8a:	3ff4f513          	andi	a0,s1,1023
     f8e:	11e44783          	lbu	a5,286(s0)
     f92:	40008637          	lui	a2,0x40008
     f96:	5e6c                	lw	a1,124(a2)
     f98:	8f49                	or	a4,a4,a0
     f9a:	07fe                	slli	a5,a5,0x1f
     f9c:	8fd9                	or	a5,a5,a4
     f9e:	04000737          	lui	a4,0x4000
     fa2:	8fd9                	or	a5,a5,a4
     fa4:	8fcd                	or	a5,a5,a1
     fa6:	de7c                	sw	a5,124(a2)
     fa8:	11e44783          	lbu	a5,286(s0)
     fac:	0017c793          	xori	a5,a5,1
     fb0:	10f40f23          	sb	a5,286(s0)
     fb4:	c274                	sw	a3,68(a2)
     fb6:	b3d1                	j	d7a <tusb_dev_drv_send_data+0x9c>
     fb8:	00041e23          	sh	zero,28(s0)
     fbc:	04300693          	li	a3,67
     fc0:	6741                	lui	a4,0x10
     fc2:	65c1                	lui	a1,0x10
     fc4:	40008637          	lui	a2,0x40008
     fc8:	5e3c                	lw	a5,120(a2)
     fca:	4501                	li	a0,0
     fcc:	4481                	li	s1,0
     fce:	8fcd                	or	a5,a5,a1
     fd0:	040005b7          	lui	a1,0x4000
     fd4:	8fcd                	or	a5,a5,a1
     fd6:	de3c                	sw	a5,120(a2)
     fd8:	bf5d                	j	f8e <tusb_dev_drv_send_data+0x2b0>
     fda:	01069613          	slli	a2,a3,0x10
     fde:	8241                	srli	a2,a2,0x10
     fe0:	84b6                	mv	s1,a3
     fe2:	bf11                	j	ef6 <tusb_dev_drv_send_data+0x218>
     fe4:	84ca                	mv	s1,s2
     fe6:	864a                	mv	a2,s2
     fe8:	bd79                	j	e86 <tusb_dev_drv_send_data+0x1a8>
     fea:	6515                	lui	a0,0x5
     fec:	27c50513          	addi	a0,a0,636 # 527c <stop_name+0xc>
     ff0:	329020ef          	jal	ra,3b18 <puts>
     ff4:	54fd                	li	s1,-1
     ff6:	b351                	j	d7a <tusb_dev_drv_send_data+0x9c>
     ff8:	001a0693          	addi	a3,s4,1
     ffc:	0ff6f693          	zext.b	a3,a3
    1000:	01069593          	slli	a1,a3,0x10
    1004:	069a                	slli	a3,a3,0x6
    1006:	872e                	mv	a4,a1
    1008:	0036e693          	ori	a3,a3,3
    100c:	bf65                	j	fc4 <tusb_dev_drv_send_data+0x2e6>
    100e:	85ba                	mv	a1,a4
    1010:	bf55                	j	fc4 <tusb_dev_drv_send_data+0x2e6>
    1012:	6515                	lui	a0,0x5
    1014:	2ac50513          	addi	a0,a0,684 # 52ac <stop_name+0x3c>
    1018:	301020ef          	jal	ra,3b18 <puts>
    101c:	54fd                	li	s1,-1
    101e:	bbb1                	j	d7a <tusb_dev_drv_send_data+0x9c>

00001020 <tusb_dev_drv_set_recv_buffer>:
tusb_dev_drv_set_recv_buffer():
    1020:	07f5f593          	andi	a1,a1,127
    1024:	c98d                	beqz	a1,1056 <tusb_dev_drv_set_recv_buffer+0x36>
    1026:	1141                	addi	sp,sp,-16
    1028:	c606                	sw	ra,12(sp)
    102a:	00f67793          	andi	a5,a2,15
    102e:	ef9d                	bnez	a5,106c <tusb_dev_drv_set_recv_buffer+0x4c>
    1030:	dffe07b7          	lui	a5,0xdffe0
    1034:	97b2                	add	a5,a5,a2
    1036:	6721                	lui	a4,0x8
    1038:	04e7f163          	bgeu	a5,a4,107a <tusb_dev_drv_set_recv_buffer+0x5a>
    103c:	00359793          	slli	a5,a1,0x3
    1040:	8f8d                	sub	a5,a5,a1
    1042:	078a                	slli	a5,a5,0x2
    1044:	953e                	add	a0,a0,a5
    1046:	c510                	sw	a2,8(a0)
    1048:	c954                	sw	a3,20(a0)
    104a:	00052c23          	sw	zero,24(a0)
    104e:	4501                	li	a0,0
    1050:	40b2                	lw	ra,12(sp)
    1052:	0141                	addi	sp,sp,16
    1054:	8082                	ret
    1056:	00359793          	slli	a5,a1,0x3
    105a:	8f8d                	sub	a5,a5,a1
    105c:	078a                	slli	a5,a5,0x2
    105e:	953e                	add	a0,a0,a5
    1060:	c510                	sw	a2,8(a0)
    1062:	c954                	sw	a3,20(a0)
    1064:	00052c23          	sw	zero,24(a0)
    1068:	4501                	li	a0,0
    106a:	8082                	ret
    106c:	6515                	lui	a0,0x5
    106e:	2d450513          	addi	a0,a0,724 # 52d4 <stop_name+0x64>
    1072:	2a7020ef          	jal	ra,3b18 <puts>
    1076:	557d                	li	a0,-1
    1078:	bfe1                	j	1050 <tusb_dev_drv_set_recv_buffer+0x30>
    107a:	6515                	lui	a0,0x5
    107c:	30450513          	addi	a0,a0,772 # 5304 <stop_name+0x94>
    1080:	299020ef          	jal	ra,3b18 <puts>
    1084:	557d                	li	a0,-1
    1086:	b7e9                	j	1050 <tusb_dev_drv_set_recv_buffer+0x30>

00001088 <tusb_dev_drv_set_rx_valid>:
tusb_dev_drv_set_rx_valid():
    1088:	07f5f793          	andi	a5,a1,127
    108c:	00379613          	slli	a2,a5,0x3
    1090:	40f606b3          	sub	a3,a2,a5
    1094:	11d54883          	lbu	a7,285(a0)
    1098:	068a                	slli	a3,a3,0x2
    109a:	96aa                	add	a3,a3,a0
    109c:	4805                	li	a6,1
    109e:	4ad8                	lw	a4,20(a3)
    10a0:	0186a303          	lw	t1,24(a3) # fffc0018 <_dmadata_end+0xdff9cc18>
    10a4:	09088963          	beq	a7,a6,1136 <tusb_dev_drv_set_rx_valid+0xae>
    10a8:	07878693          	addi	a3,a5,120 # dffe0078 <_dmadata_end+0xbffbcc78>
    10ac:	0686                	slli	a3,a3,0x1
    10ae:	96aa                	add	a3,a3,a0
    10b0:	0046d683          	lhu	a3,4(a3)
    10b4:	00f508b3          	add	a7,a0,a5
    10b8:	40670733          	sub	a4,a4,t1
    10bc:	00168813          	addi	a6,a3,1
    10c0:	00383813          	sltiu	a6,a6,3
    10c4:	41000833          	neg	a6,a6
    10c8:	10c8c883          	lbu	a7,268(a7)
    10cc:	9736                	add	a4,a4,a3
    10ce:	0106f6b3          	and	a3,a3,a6
    10d2:	8f15                	sub	a4,a4,a3
    10d4:	04e8e963          	bltu	a7,a4,1126 <tusb_dev_drv_set_rx_valid+0x9e>
    10d8:	8e1d                	sub	a2,a2,a5
    10da:	060a                	slli	a2,a2,0x2
    10dc:	9532                	add	a0,a0,a2
    10de:	00e50fa3          	sb	a4,31(a0)
    10e2:	cf81                	beqz	a5,10fa <tusb_dev_drv_set_rx_valid+0x72>
    10e4:	4510                	lw	a2,8(a0)
    10e6:	fff78693          	addi	a3,a5,-1
    10ea:	40008537          	lui	a0,0x40008
    10ee:	0692                	slli	a3,a3,0x4
    10f0:	08450513          	addi	a0,a0,132 # 40008084 <_dmadata_end+0x1ffe4c84>
    10f4:	96aa                	add	a3,a3,a0
    10f6:	961a                	add	a2,a2,t1
    10f8:	c290                	sw	a2,0(a3)
    10fa:	40008637          	lui	a2,0x40008
    10fe:	07860693          	addi	a3,a2,120 # 40008078 <_dmadata_end+0x1ffe4c78>
    1102:	0792                	slli	a5,a5,0x4
    1104:	97b6                	add	a5,a5,a3
    1106:	4388                	lw	a0,0(a5)
    1108:	01071693          	slli	a3,a4,0x10
    110c:	89bd                	andi	a1,a1,15
    110e:	8ec9                	or	a3,a3,a0
    1110:	058a                	slli	a1,a1,0x2
    1112:	071a                	slli	a4,a4,0x6
    1114:	04000537          	lui	a0,0x4000
    1118:	8ec9                	or	a3,a3,a0
    111a:	8f4d                	or	a4,a4,a1
    111c:	c394                	sw	a3,0(a5)
    111e:	00176713          	ori	a4,a4,1
    1122:	c278                	sw	a4,68(a2)
    1124:	8082                	ret
    1126:	8e1d                	sub	a2,a2,a5
    1128:	060a                	slli	a2,a2,0x2
    112a:	8746                	mv	a4,a7
    112c:	9532                	add	a0,a0,a2
    112e:	00e50fa3          	sb	a4,31(a0) # 400001f <_data_lma+0x3ffa77f>
    1132:	d7e1                	beqz	a5,10fa <tusb_dev_drv_set_rx_valid+0x72>
    1134:	bf45                	j	10e4 <tusb_dev_drv_set_rx_valid+0x5c>
    1136:	cb99                	beqz	a5,114c <tusb_dev_drv_set_rx_valid+0xc4>
    1138:	4694                	lw	a3,8(a3)
    113a:	fff78713          	addi	a4,a5,-1
    113e:	40009637          	lui	a2,0x40009
    1142:	0712                	slli	a4,a4,0x4
    1144:	0661                	addi	a2,a2,24 # 40009018 <_dmadata_end+0x1ffe5c18>
    1146:	9732                	add	a4,a4,a2
    1148:	969a                	add	a3,a3,t1
    114a:	c314                	sw	a3,0(a4)
    114c:	40009737          	lui	a4,0x40009
    1150:	07070713          	addi	a4,a4,112 # 40009070 <_dmadata_end+0x1ffe5c70>
    1154:	078a                	slli	a5,a5,0x2
    1156:	97ba                	add	a5,a5,a4
    1158:	4398                	lw	a4,0(a5)
    115a:	fd0006b7          	lui	a3,0xfd000
    115e:	16fd                	addi	a3,a3,-1 # fcffffff <_dmadata_end+0xdcfdcbff>
    1160:	8f75                	and	a4,a4,a3
    1162:	c398                	sw	a4,0(a5)
    1164:	8082                	ret

00001166 <bsp_gpio_init>:
bsp_gpio_init():
    1166:	1141                	addi	sp,sp,-16
    1168:	4581                	li	a1,0
    116a:	e7f00513          	li	a0,-385
    116e:	c606                	sw	ra,12(sp)
    1170:	c422                	sw	s0,8(sp)
    1172:	fb1fe0ef          	jal	ra,122 <GPIOA_ModeCfg>
    1176:	4581                	li	a1,0
    1178:	557d                	li	a0,-1
    117a:	8c4ff0ef          	jal	ra,23e <GPIOB_ModeCfg>
    117e:	40001437          	lui	s0,0x40001
    1182:	547c                	lw	a5,108(s0)
    1184:	00400737          	lui	a4,0x400
    1188:	459d                	li	a1,7
    118a:	8fd9                	or	a5,a5,a4
    118c:	d47c                	sw	a5,108(s0)
    118e:	00400537          	lui	a0,0x400
    1192:	8acff0ef          	jal	ra,23e <GPIOB_ModeCfg>
    1196:	547c                	lw	a5,108(s0)
    1198:	00800737          	lui	a4,0x800
    119c:	4581                	li	a1,0
    119e:	8fd9                	or	a5,a5,a4
    11a0:	d47c                	sw	a5,108(s0)
    11a2:	00800537          	lui	a0,0x800
    11a6:	898ff0ef          	jal	ra,23e <GPIOB_ModeCfg>
    11aa:	547c                	lw	a5,108(s0)
    11ac:	01000737          	lui	a4,0x1000
    11b0:	40b2                	lw	ra,12(sp)
    11b2:	8fd9                	or	a5,a5,a4
    11b4:	d47c                	sw	a5,108(s0)
    11b6:	4422                	lw	s0,8(sp)
    11b8:	4585                	li	a1,1
    11ba:	01000537          	lui	a0,0x1000
    11be:	0141                	addi	sp,sp,16
    11c0:	87eff06f          	j	23e <GPIOB_ModeCfg>

000011c4 <bsp_ubtn>:
bsp_ubtn():
    11c4:	400017b7          	lui	a5,0x40001
    11c8:	53e8                	lw	a0,100(a5)
    11ca:	008007b7          	lui	a5,0x800
    11ce:	8d7d                	and	a0,a0,a5
    11d0:	8082                	ret

000011d2 <bsp_uled_on>:
bsp_uled_on():
    11d2:	40001737          	lui	a4,0x40001
    11d6:	577c                	lw	a5,108(a4)
    11d8:	004006b7          	lui	a3,0x400
    11dc:	8fd5                	or	a5,a5,a3
    11de:	d77c                	sw	a5,108(a4)
    11e0:	8082                	ret

000011e2 <bsp_uled_off>:
bsp_uled_off():
    11e2:	40001737          	lui	a4,0x40001
    11e6:	573c                	lw	a5,104(a4)
    11e8:	004006b7          	lui	a3,0x400
    11ec:	8fd5                	or	a5,a5,a3
    11ee:	d73c                	sw	a5,104(a4)
    11f0:	8082                	ret

000011f2 <USB3_force>:
USB3_force():
    11f2:	1141                	addi	sp,sp,-16
    11f4:	4501                	li	a0,0
    11f6:	c606                	sw	ra,12(sp)
    11f8:	c422                	sw	s0,8(sp)
    11fa:	0da010ef          	jal	ra,22d4 <USB20_Device_Init>
    11fe:	400097b7          	lui	a5,0x40009
    1202:	0007a023          	sw	zero,0(a5) # 40009000 <_dmadata_end+0x1ffe5c00>
    1206:	00100737          	lui	a4,0x100
    120a:	e000e7b7          	lui	a5,0xe000e
    120e:	10e7a023          	sw	a4,256(a5) # e000e100 <_dmadata_end+0xbffead00>
    1212:	00200737          	lui	a4,0x200
    1216:	10e7a023          	sw	a4,256(a5)
    121a:	00020737          	lui	a4,0x20
    121e:	10e7a023          	sw	a4,256(a5)
    1222:	03fe5537          	lui	a0,0x3fe5
    1226:	400027b7          	lui	a5,0x40002
    122a:	4705                	li	a4,1
    122c:	00e78123          	sb	a4,2(a5) # 40002002 <_dmadata_end+0x1ffdec02>
    1230:	6c050513          	addi	a0,a0,1728 # 3fe56c0 <_data_lma+0x3fdfe20>
    1234:	bceff0ef          	jal	ra,602 <TMR0_TimerInit>
    1238:	20022437          	lui	s0,0x20022
    123c:	6605                	lui	a2,0x1
    123e:	4581                	li	a1,0
    1240:	20040513          	addi	a0,s0,512 # 20022200 <endp1Tbuff>
    1244:	e93fe0ef          	jal	ra,d6 <memset>
    1248:	400087b7          	lui	a5,0x40008
    124c:	14000713          	li	a4,320
    1250:	c398                	sw	a4,0(a5)
    1252:	4749                	li	a4,18
    1254:	c3d8                	sw	a4,4(a5)
    1256:	004c5737          	lui	a4,0x4c5
    125a:	b4170713          	addi	a4,a4,-1215 # 4c4b41 <_data_lma+0x4bf2a1>
    125e:	400086b7          	lui	a3,0x40008
    1262:	a011                	j	1266 <USB3_force+0x74>
    1264:	c36d                	beqz	a4,1346 <USB3_force+0x154>
    1266:	4a9c                	lw	a5,16(a3)
    1268:	177d                	addi	a4,a4,-1
    126a:	8b91                	andi	a5,a5,4
    126c:	ffe5                	bnez	a5,1264 <USB3_force+0x72>
    126e:	0606ae23          	sw	zero,124(a3) # 4000807c <_dmadata_end+0x1ffe4c7c>
    1272:	0606ac23          	sw	zero,120(a3)
    1276:	0806a623          	sw	zero,140(a3)
    127a:	0806a423          	sw	zero,136(a3)
    127e:	0806ae23          	sw	zero,156(a3)
    1282:	0806ac23          	sw	zero,152(a3)
    1286:	0a06a623          	sw	zero,172(a3)
    128a:	0a06a423          	sw	zero,168(a3)
    128e:	0a06ae23          	sw	zero,188(a3)
    1292:	0a06ac23          	sw	zero,184(a3)
    1296:	0c06a623          	sw	zero,204(a3)
    129a:	0c06a423          	sw	zero,200(a3)
    129e:	0c06ae23          	sw	zero,220(a3)
    12a2:	0c06ac23          	sw	zero,216(a3)
    12a6:	0e06a623          	sw	zero,236(a3)
    12aa:	0e06a423          	sw	zero,232(a3)
    12ae:	47cd                	li	a5,19
    12b0:	d2dc                	sw	a5,36(a3)
    12b2:	000307b7          	lui	a5,0x30
    12b6:	02178793          	addi	a5,a5,33 # 30021 <_data_lma+0x2a781>
    12ba:	d29c                	sw	a5,32(a3)
    12bc:	0606a823          	sw	zero,112(a3)
    12c0:	429c                	lw	a5,0(a3)
    12c2:	20040413          	addi	s0,s0,512
    12c6:	20021737          	lui	a4,0x20021
    12ca:	0027e793          	ori	a5,a5,2
    12ce:	c29c                	sw	a5,0(a3)
    12d0:	0010c7b7          	lui	a5,0x10c
    12d4:	c7d78793          	addi	a5,a5,-899 # 10bc7d <_data_lma+0x1063dd>
    12d8:	c69c                	sw	a5,8(a3)
    12da:	4789                	li	a5,2
    12dc:	c2dc                	sw	a5,4(a3)
    12de:	70700793          	li	a5,1799
    12e2:	dabc                	sw	a5,112(a3)
    12e4:	200237b7          	lui	a5,0x20023
    12e8:	20078793          	addi	a5,a5,512 # 20023200 <endp0RTbuff>
    12ec:	dafc                	sw	a5,116(a3)
    12ee:	200207b7          	lui	a5,0x20020
    12f2:	0886a023          	sw	s0,128(a3)
    12f6:	20078793          	addi	a5,a5,512 # 20020200 <endp2RTbuff>
    12fa:	08f6aa23          	sw	a5,148(a3)
    12fe:	20070713          	addi	a4,a4,512 # 20021200 <endp1Rbuff>
    1302:	08e6a223          	sw	a4,132(a3)
    1306:	08f6a823          	sw	a5,144(a3)
    130a:	0886a783          	lw	a5,136(a3)
    130e:	04040637          	lui	a2,0x4040
    1312:	8fd1                	or	a5,a5,a2
    1314:	08f6a423          	sw	a5,136(a3)
    1318:	0986a703          	lw	a4,152(a3)
    131c:	140407b7          	lui	a5,0x14040
    1320:	40078793          	addi	a5,a5,1024 # 14040400 <_data_lma+0x1403ab60>
    1324:	8f51                	or	a4,a4,a2
    1326:	08e6ac23          	sw	a4,152(a3)
    132a:	08c6a703          	lw	a4,140(a3)
    132e:	40b2                	lw	ra,12(sp)
    1330:	4422                	lw	s0,8(sp)
    1332:	8f5d                	or	a4,a4,a5
    1334:	08e6a623          	sw	a4,140(a3)
    1338:	09c6a703          	lw	a4,156(a3)
    133c:	8fd9                	or	a5,a5,a4
    133e:	08f6ae23          	sw	a5,156(a3)
    1342:	0141                	addi	sp,sp,16
    1344:	8082                	ret
    1346:	a001                	j	1346 <USB3_force+0x154>

00001348 <USB30_BusReset>:
USB30_BusReset():
    1348:	1141                	addi	sp,sp,-16
    134a:	c422                	sw	s0,8(sp)
    134c:	c606                	sw	ra,12(sp)
    134e:	c226                	sw	s1,4(sp)
    1350:	40008437          	lui	s0,0x40008
    1354:	481c                	lw	a5,16(s0)
    1356:	8b91                	andi	a5,a5,4
    1358:	fff5                	bnez	a5,1354 <USB30_BusReset+0xc>
    135a:	405c                	lw	a5,4(s0)
    135c:	4551                	li	a0,20
    135e:	200224b7          	lui	s1,0x20022
    1362:	9bf1                	andi	a5,a5,-4
    1364:	c05c                	sw	a5,4(s0)
    1366:	405c                	lw	a5,4(s0)
    1368:	0027e793          	ori	a5,a5,2
    136c:	c05c                	sw	a5,4(s0)
    136e:	02800793          	li	a5,40
    1372:	c01c                	sw	a5,0(s0)
    1374:	47cd                	li	a5,19
    1376:	c05c                	sw	a5,4(s0)
    1378:	00042423          	sw	zero,8(s0) # 40008008 <_dmadata_end+0x1ffe4c08>
    137c:	4799                	li	a5,6
    137e:	d01c                	sw	a5,32(s0)
    1380:	b62ff0ef          	jal	ra,6e2 <bsp_wait_ms_delay>
    1384:	6605                	lui	a2,0x1
    1386:	4581                	li	a1,0
    1388:	20048513          	addi	a0,s1,512 # 20022200 <endp1Tbuff>
    138c:	d4bfe0ef          	jal	ra,d6 <memset>
    1390:	14000793          	li	a5,320
    1394:	c01c                	sw	a5,0(s0)
    1396:	004c5737          	lui	a4,0x4c5
    139a:	47c9                	li	a5,18
    139c:	c05c                	sw	a5,4(s0)
    139e:	b4170713          	addi	a4,a4,-1215 # 4c4b41 <_data_lma+0x4bf2a1>
    13a2:	400086b7          	lui	a3,0x40008
    13a6:	a011                	j	13aa <USB30_BusReset+0x62>
    13a8:	c375                	beqz	a4,148c <USB30_BusReset+0x144>
    13aa:	4a9c                	lw	a5,16(a3)
    13ac:	177d                	addi	a4,a4,-1
    13ae:	8b91                	andi	a5,a5,4
    13b0:	ffe5                	bnez	a5,13a8 <USB30_BusReset+0x60>
    13b2:	0606ae23          	sw	zero,124(a3) # 4000807c <_dmadata_end+0x1ffe4c7c>
    13b6:	0606ac23          	sw	zero,120(a3)
    13ba:	0806a623          	sw	zero,140(a3)
    13be:	0806a423          	sw	zero,136(a3)
    13c2:	0806ae23          	sw	zero,156(a3)
    13c6:	0806ac23          	sw	zero,152(a3)
    13ca:	0a06a623          	sw	zero,172(a3)
    13ce:	0a06a423          	sw	zero,168(a3)
    13d2:	0a06ae23          	sw	zero,188(a3)
    13d6:	0a06ac23          	sw	zero,184(a3)
    13da:	0c06a623          	sw	zero,204(a3)
    13de:	0c06a423          	sw	zero,200(a3)
    13e2:	0c06ae23          	sw	zero,220(a3)
    13e6:	0c06ac23          	sw	zero,216(a3)
    13ea:	0e06a623          	sw	zero,236(a3)
    13ee:	0e06a423          	sw	zero,232(a3)
    13f2:	47cd                	li	a5,19
    13f4:	d2dc                	sw	a5,36(a3)
    13f6:	000307b7          	lui	a5,0x30
    13fa:	02178793          	addi	a5,a5,33 # 30021 <_data_lma+0x2a781>
    13fe:	d29c                	sw	a5,32(a3)
    1400:	0606a823          	sw	zero,112(a3)
    1404:	429c                	lw	a5,0(a3)
    1406:	20048493          	addi	s1,s1,512
    140a:	20021737          	lui	a4,0x20021
    140e:	0027e793          	ori	a5,a5,2
    1412:	c29c                	sw	a5,0(a3)
    1414:	0010c7b7          	lui	a5,0x10c
    1418:	c7d78793          	addi	a5,a5,-899 # 10bc7d <_data_lma+0x1063dd>
    141c:	c69c                	sw	a5,8(a3)
    141e:	4789                	li	a5,2
    1420:	c2dc                	sw	a5,4(a3)
    1422:	70700793          	li	a5,1799
    1426:	dabc                	sw	a5,112(a3)
    1428:	200237b7          	lui	a5,0x20023
    142c:	20078793          	addi	a5,a5,512 # 20023200 <endp0RTbuff>
    1430:	dafc                	sw	a5,116(a3)
    1432:	200207b7          	lui	a5,0x20020
    1436:	0896a023          	sw	s1,128(a3)
    143a:	20078793          	addi	a5,a5,512 # 20020200 <endp2RTbuff>
    143e:	08f6aa23          	sw	a5,148(a3)
    1442:	20070713          	addi	a4,a4,512 # 20021200 <endp1Rbuff>
    1446:	08e6a223          	sw	a4,132(a3)
    144a:	08f6a823          	sw	a5,144(a3)
    144e:	0886a783          	lw	a5,136(a3)
    1452:	04040637          	lui	a2,0x4040
    1456:	8fd1                	or	a5,a5,a2
    1458:	08f6a423          	sw	a5,136(a3)
    145c:	0986a703          	lw	a4,152(a3)
    1460:	140407b7          	lui	a5,0x14040
    1464:	40078793          	addi	a5,a5,1024 # 14040400 <_data_lma+0x1403ab60>
    1468:	8f51                	or	a4,a4,a2
    146a:	08e6ac23          	sw	a4,152(a3)
    146e:	08c6a703          	lw	a4,140(a3)
    1472:	40b2                	lw	ra,12(sp)
    1474:	4422                	lw	s0,8(sp)
    1476:	8f5d                	or	a4,a4,a5
    1478:	08e6a623          	sw	a4,140(a3)
    147c:	09c6a703          	lw	a4,156(a3)
    1480:	4492                	lw	s1,4(sp)
    1482:	8fd9                	or	a5,a5,a4
    1484:	08f6ae23          	sw	a5,156(a3)
    1488:	0141                	addi	sp,sp,16
    148a:	8082                	ret
    148c:	a001                	j	148c <USB30_BusReset+0x144>

0000148e <USB30D_init>:
USB30D_init():
    148e:	40008737          	lui	a4,0x40008
    1492:	e50d                	bnez	a0,14bc <USB30D_init+0x2e>
    1494:	4b1c                	lw	a5,16(a4)
    1496:	8b91                	andi	a5,a5,4
    1498:	fff5                	bnez	a5,1494 <USB30D_init+0x6>
    149a:	435c                	lw	a5,4(a4)
    149c:	9bf1                	andi	a5,a5,-4
    149e:	c35c                	sw	a5,4(a4)
    14a0:	435c                	lw	a5,4(a4)
    14a2:	0027e793          	ori	a5,a5,2
    14a6:	c35c                	sw	a5,4(a4)
    14a8:	02800793          	li	a5,40
    14ac:	c31c                	sw	a5,0(a4)
    14ae:	47cd                	li	a5,19
    14b0:	c35c                	sw	a5,4(a4)
    14b2:	00072423          	sw	zero,8(a4) # 40008008 <_dmadata_end+0x1ffe4c08>
    14b6:	4799                	li	a5,6
    14b8:	d31c                	sw	a5,32(a4)
    14ba:	8082                	ret
    14bc:	1141                	addi	sp,sp,-16
    14be:	c422                	sw	s0,8(sp)
    14c0:	20022437          	lui	s0,0x20022
    14c4:	6605                	lui	a2,0x1
    14c6:	4581                	li	a1,0
    14c8:	20040513          	addi	a0,s0,512 # 20022200 <endp1Tbuff>
    14cc:	c606                	sw	ra,12(sp)
    14ce:	c09fe0ef          	jal	ra,d6 <memset>
    14d2:	400087b7          	lui	a5,0x40008
    14d6:	14000713          	li	a4,320
    14da:	c398                	sw	a4,0(a5)
    14dc:	4749                	li	a4,18
    14de:	c3d8                	sw	a4,4(a5)
    14e0:	004c5737          	lui	a4,0x4c5
    14e4:	b4170713          	addi	a4,a4,-1215 # 4c4b41 <_data_lma+0x4bf2a1>
    14e8:	400086b7          	lui	a3,0x40008
    14ec:	a011                	j	14f0 <USB30D_init+0x62>
    14ee:	c36d                	beqz	a4,15d0 <USB30D_init+0x142>
    14f0:	4a9c                	lw	a5,16(a3)
    14f2:	177d                	addi	a4,a4,-1
    14f4:	8b91                	andi	a5,a5,4
    14f6:	ffe5                	bnez	a5,14ee <USB30D_init+0x60>
    14f8:	0606ae23          	sw	zero,124(a3) # 4000807c <_dmadata_end+0x1ffe4c7c>
    14fc:	0606ac23          	sw	zero,120(a3)
    1500:	0806a623          	sw	zero,140(a3)
    1504:	0806a423          	sw	zero,136(a3)
    1508:	0806ae23          	sw	zero,156(a3)
    150c:	0806ac23          	sw	zero,152(a3)
    1510:	0a06a623          	sw	zero,172(a3)
    1514:	0a06a423          	sw	zero,168(a3)
    1518:	0a06ae23          	sw	zero,188(a3)
    151c:	0a06ac23          	sw	zero,184(a3)
    1520:	0c06a623          	sw	zero,204(a3)
    1524:	0c06a423          	sw	zero,200(a3)
    1528:	0c06ae23          	sw	zero,220(a3)
    152c:	0c06ac23          	sw	zero,216(a3)
    1530:	0e06a623          	sw	zero,236(a3)
    1534:	0e06a423          	sw	zero,232(a3)
    1538:	47cd                	li	a5,19
    153a:	d2dc                	sw	a5,36(a3)
    153c:	000307b7          	lui	a5,0x30
    1540:	02178793          	addi	a5,a5,33 # 30021 <_data_lma+0x2a781>
    1544:	d29c                	sw	a5,32(a3)
    1546:	0606a823          	sw	zero,112(a3)
    154a:	429c                	lw	a5,0(a3)
    154c:	20040413          	addi	s0,s0,512
    1550:	20021737          	lui	a4,0x20021
    1554:	0027e793          	ori	a5,a5,2
    1558:	c29c                	sw	a5,0(a3)
    155a:	0010c7b7          	lui	a5,0x10c
    155e:	c7d78793          	addi	a5,a5,-899 # 10bc7d <_data_lma+0x1063dd>
    1562:	c69c                	sw	a5,8(a3)
    1564:	4789                	li	a5,2
    1566:	c2dc                	sw	a5,4(a3)
    1568:	70700793          	li	a5,1799
    156c:	dabc                	sw	a5,112(a3)
    156e:	200237b7          	lui	a5,0x20023
    1572:	20078793          	addi	a5,a5,512 # 20023200 <endp0RTbuff>
    1576:	dafc                	sw	a5,116(a3)
    1578:	200207b7          	lui	a5,0x20020
    157c:	0886a023          	sw	s0,128(a3)
    1580:	20078793          	addi	a5,a5,512 # 20020200 <endp2RTbuff>
    1584:	08f6aa23          	sw	a5,148(a3)
    1588:	20070713          	addi	a4,a4,512 # 20021200 <endp1Rbuff>
    158c:	08e6a223          	sw	a4,132(a3)
    1590:	08f6a823          	sw	a5,144(a3)
    1594:	0886a783          	lw	a5,136(a3)
    1598:	04040637          	lui	a2,0x4040
    159c:	8fd1                	or	a5,a5,a2
    159e:	08f6a423          	sw	a5,136(a3)
    15a2:	0986a703          	lw	a4,152(a3)
    15a6:	140407b7          	lui	a5,0x14040
    15aa:	40078793          	addi	a5,a5,1024 # 14040400 <_data_lma+0x1403ab60>
    15ae:	8f51                	or	a4,a4,a2
    15b0:	08e6ac23          	sw	a4,152(a3)
    15b4:	08c6a703          	lw	a4,140(a3)
    15b8:	40b2                	lw	ra,12(sp)
    15ba:	4422                	lw	s0,8(sp)
    15bc:	8f5d                	or	a4,a4,a5
    15be:	08e6a623          	sw	a4,140(a3)
    15c2:	09c6a703          	lw	a4,156(a3)
    15c6:	8fd9                	or	a5,a5,a4
    15c8:	08f6ae23          	sw	a5,156(a3)
    15cc:	0141                	addi	sp,sp,16
    15ce:	8082                	ret
    15d0:	a001                	j	15d0 <USB30D_init+0x142>

000015d2 <USB30_NonStandardReq>:
USB30_NonStandardReq():
    15d2:	1101                	addi	sp,sp,-32
    15d4:	20023537          	lui	a0,0x20023
    15d8:	cc22                	sw	s0,24(sp)
    15da:	ca26                	sw	s1,20(sp)
    15dc:	20050793          	addi	a5,a0,512 # 20023200 <endp0RTbuff>
    15e0:	ce06                	sw	ra,28(sp)
    15e2:	c84a                	sw	s2,16(sp)
    15e4:	c64e                	sw	s3,12(sp)
    15e6:	c452                	sw	s4,8(sp)
    15e8:	c256                	sw	s5,4(sp)
    15ea:	0017c703          	lbu	a4,1(a5)
    15ee:	0067d403          	lhu	s0,6(a5)
    15f2:	84e18a23          	sb	a4,-1964(gp) # 2000036c <SetupReqCode>
    15f6:	8481ac23          	sw	s0,-1960(gp) # 20000370 <SetupLen>
    15fa:	4605                	li	a2,1
    15fc:	0007c583          	lbu	a1,0(a5)
    1600:	02c70163          	beq	a4,a2,1622 <USB30_NonStandardReq+0x50>
    1604:	57fd                	li	a5,-1
    1606:	6441                	lui	s0,0x10
    1608:	84f18a23          	sb	a5,-1964(gp) # 2000036c <SetupReqCode>
    160c:	147d                	addi	s0,s0,-1 # ffff <_data_lma+0xa75f>
    160e:	40f2                	lw	ra,28(sp)
    1610:	8522                	mv	a0,s0
    1612:	4462                	lw	s0,24(sp)
    1614:	44d2                	lw	s1,20(sp)
    1616:	4942                	lw	s2,16(sp)
    1618:	49b2                	lw	s3,12(sp)
    161a:	4a22                	lw	s4,8(sp)
    161c:	4a92                	lw	s5,4(sp)
    161e:	6105                	addi	sp,sp,32
    1620:	8082                	ret
    1622:	0047c783          	lbu	a5,4(a5)
    1626:	4725                	li	a4,9
    1628:	02f76263          	bltu	a4,a5,164c <USB30_NonStandardReq+0x7a>
    162c:	470d                	li	a4,3
    162e:	fcf77be3          	bgeu	a4,a5,1604 <USB30_NonStandardReq+0x32>
    1632:	17ed                	addi	a5,a5,-5
    1634:	0ff7f793          	zext.b	a5,a5
    1638:	4711                	li	a4,4
    163a:	08f76f63          	bltu	a4,a5,16d8 <USB30_NonStandardReq+0x106>
    163e:	6715                	lui	a4,0x5
    1640:	078a                	slli	a5,a5,0x2
    1642:	32c70713          	addi	a4,a4,812 # 532c <stop_name+0xbc>
    1646:	97ba                	add	a5,a5,a4
    1648:	439c                	lw	a5,0(a5)
    164a:	8782                	jr	a5
    164c:	0c000713          	li	a4,192
    1650:	fae79ae3          	bne	a5,a4,1604 <USB30_NonStandardReq+0x32>
    1654:	20000793          	li	a5,512
    1658:	8922                	mv	s2,s0
    165a:	0a87ec63          	bltu	a5,s0,1712 <USB30_NonStandardReq+0x140>
    165e:	20000713          	li	a4,512
    1662:	412409b3          	sub	s3,s0,s2
    1666:	87a2                	mv	a5,s0
    1668:	08876b63          	bltu	a4,s0,16fe <USB30_NonStandardReq+0x12c>
    166c:	01079413          	slli	s0,a5,0x10
    1670:	8041                	srli	s0,s0,0x10
    1672:	a081                	j	16b2 <USB30_NonStandardReq+0xe0>
    1674:	04800793          	li	a5,72
    1678:	8922                	mv	s2,s0
    167a:	0087f863          	bgeu	a5,s0,168a <USB30_NonStandardReq+0xb8>
    167e:	84f1ac23          	sw	a5,-1960(gp) # 20000370 <SetupLen>
    1682:	04800413          	li	s0,72
    1686:	04800913          	li	s2,72
    168a:	200007b7          	lui	a5,0x20000
    168e:	0b878793          	addi	a5,a5,184 # 200000b8 <USB_MSOS20DescriptorSet>
    1692:	84f1a823          	sw	a5,-1968(gp) # 20000368 <pDescr>
    1696:	4981                	li	s3,0
    1698:	a829                	j	16b2 <USB30_NonStandardReq+0xe0>
    169a:	08e00793          	li	a5,142
    169e:	8922                	mv	s2,s0
    16a0:	0687e263          	bltu	a5,s0,1704 <USB30_NonStandardReq+0x132>
    16a4:	200007b7          	lui	a5,0x20000
    16a8:	00078793          	mv	a5,a5
    16ac:	84f1a823          	sw	a5,-1968(gp) # 20000368 <pDescr>
    16b0:	4981                	li	s3,0
    16b2:	05e2                	slli	a1,a1,0x18
    16b4:	85e1                	srai	a1,a1,0x18
    16b6:	0005c563          	bltz	a1,16c0 <USB30_NonStandardReq+0xee>
    16ba:	8531ac23          	sw	s3,-1960(gp) # 20000370 <SetupLen>
    16be:	bf81                	j	160e <USB30_NonStandardReq+0x3c>
    16c0:	8501aa03          	lw	s4,-1968(gp) # 20000368 <pDescr>
    16c4:	864a                	mv	a2,s2
    16c6:	20050513          	addi	a0,a0,512
    16ca:	85d2                	mv	a1,s4
    16cc:	9a4a                	add	s4,s4,s2
    16ce:	9f3fe0ef          	jal	ra,c0 <memcpy>
    16d2:	8541a823          	sw	s4,-1968(gp) # 20000368 <pDescr>
    16d6:	b7d5                	j	16ba <USB30_NonStandardReq+0xe8>
    16d8:	02800793          	li	a5,40
    16dc:	8922                	mv	s2,s0
    16de:	0087f863          	bgeu	a5,s0,16ee <USB30_NonStandardReq+0x11c>
    16e2:	84f1ac23          	sw	a5,-1960(gp) # 20000370 <SetupLen>
    16e6:	02800413          	li	s0,40
    16ea:	02800913          	li	s2,40
    16ee:	200007b7          	lui	a5,0x20000
    16f2:	09078793          	addi	a5,a5,144 # 20000090 <USB_CompatId>
    16f6:	84f1a823          	sw	a5,-1968(gp) # 20000368 <pDescr>
    16fa:	4981                	li	s3,0
    16fc:	bf5d                	j	16b2 <USB30_NonStandardReq+0xe0>
    16fe:	20000793          	li	a5,512
    1702:	b7ad                	j	166c <USB30_NonStandardReq+0x9a>
    1704:	84f1ac23          	sw	a5,-1960(gp) # 20000370 <SetupLen>
    1708:	08e00413          	li	s0,142
    170c:	08e00913          	li	s2,142
    1710:	bf51                	j	16a4 <USB30_NonStandardReq+0xd2>
    1712:	20000913          	li	s2,512
    1716:	b7a1                	j	165e <USB30_NonStandardReq+0x8c>

00001718 <USB30_StandardReq>:
USB30_StandardReq():
    1718:	1101                	addi	sp,sp,-32
    171a:	20023537          	lui	a0,0x20023
    171e:	cc22                	sw	s0,24(sp)
    1720:	ca26                	sw	s1,20(sp)
    1722:	20050713          	addi	a4,a0,512 # 20023200 <endp0RTbuff>
    1726:	ce06                	sw	ra,28(sp)
    1728:	c84a                	sw	s2,16(sp)
    172a:	c64e                	sw	s3,12(sp)
    172c:	00675403          	lhu	s0,6(a4)
    1730:	00174783          	lbu	a5,1(a4)
    1734:	84f18a23          	sb	a5,-1964(gp) # 2000036c <SetupReqCode>
    1738:	8481ac23          	sw	s0,-1960(gp) # 20000370 <SetupLen>
    173c:	03100693          	li	a3,49
    1740:	00f6e963          	bltu	a3,a5,1752 <USB30_StandardReq+0x3a>
    1744:	6695                	lui	a3,0x5
    1746:	078a                	slli	a5,a5,0x2
    1748:	34068693          	addi	a3,a3,832 # 5340 <stop_name+0xd0>
    174c:	97b6                	add	a5,a5,a3
    174e:	439c                	lw	a5,0(a5)
    1750:	8782                	jr	a5
    1752:	6441                	lui	s0,0x10
    1754:	147d                	addi	s0,s0,-1 # ffff <_data_lma+0xa75f>
    1756:	40f2                	lw	ra,28(sp)
    1758:	8522                	mv	a0,s0
    175a:	4462                	lw	s0,24(sp)
    175c:	57fd                	li	a5,-1
    175e:	84f18a23          	sb	a5,-1964(gp) # 2000036c <SetupReqCode>
    1762:	44d2                	lw	s1,20(sp)
    1764:	4942                	lw	s2,16(sp)
    1766:	49b2                	lw	s3,12(sp)
    1768:	6105                	addi	sp,sp,32
    176a:	8082                	ret
    176c:	00274783          	lbu	a5,2(a4)
    1770:	84f1ac23          	sw	a5,-1960(gp) # 20000370 <SetupLen>
    1774:	4401                	li	s0,0
    1776:	40f2                	lw	ra,28(sp)
    1778:	8522                	mv	a0,s0
    177a:	4462                	lw	s0,24(sp)
    177c:	44d2                	lw	s1,20(sp)
    177e:	4942                	lw	s2,16(sp)
    1780:	49b2                	lw	s3,12(sp)
    1782:	6105                	addi	sp,sp,32
    1784:	8082                	ret
    1786:	00374783          	lbu	a5,3(a4)
    178a:	468d                	li	a3,3
    178c:	8922                	mv	s2,s0
    178e:	08d78563          	beq	a5,a3,1818 <USB30_StandardReq+0x100>
    1792:	04f6e363          	bltu	a3,a5,17d8 <USB30_StandardReq+0xc0>
    1796:	4705                	li	a4,1
    1798:	0ce78263          	beq	a5,a4,185c <USB30_StandardReq+0x144>
    179c:	4709                	li	a4,2
    179e:	fae79ae3          	bne	a5,a4,1752 <USB30_StandardReq+0x3a>
    17a2:	05d00793          	li	a5,93
    17a6:	0087f663          	bgeu	a5,s0,17b2 <USB30_StandardReq+0x9a>
    17aa:	05d00413          	li	s0,93
    17ae:	05d00913          	li	s2,93
    17b2:	200009b7          	lui	s3,0x20000
    17b6:	1a498993          	addi	s3,s3,420 # 200001a4 <USB_SS_ConfigDescriptor>
    17ba:	a80d                	j	17ec <USB30_StandardReq+0xd4>
    17bc:	4409                	li	s0,2
    17be:	4785                	li	a5,1
    17c0:	40f2                	lw	ra,28(sp)
    17c2:	20f51023          	sh	a5,512(a0)
    17c6:	8522                	mv	a0,s0
    17c8:	4462                	lw	s0,24(sp)
    17ca:	8401ac23          	sw	zero,-1960(gp) # 20000370 <SetupLen>
    17ce:	4942                	lw	s2,16(sp)
    17d0:	44d2                	lw	s1,20(sp)
    17d2:	49b2                	lw	s3,12(sp)
    17d4:	6105                	addi	sp,sp,32
    17d6:	8082                	ret
    17d8:	473d                	li	a4,15
    17da:	f6e79ce3          	bne	a5,a4,1752 <USB30_StandardReq+0x3a>
    17de:	47d9                	li	a5,22
    17e0:	0287e963          	bltu	a5,s0,1812 <USB30_StandardReq+0xfa>
    17e4:	200009b7          	lui	s3,0x20000
    17e8:	10098993          	addi	s3,s3,256 # 20000100 <USB_BOSDescriptor>
    17ec:	864a                	mv	a2,s2
    17ee:	85ce                	mv	a1,s3
    17f0:	20050513          	addi	a0,a0,512
    17f4:	8cdfe0ef          	jal	ra,c0 <memcpy>
    17f8:	40f2                	lw	ra,28(sp)
    17fa:	8522                	mv	a0,s0
    17fc:	4462                	lw	s0,24(sp)
    17fe:	99ca                	add	s3,s3,s2
    1800:	8401ac23          	sw	zero,-1960(gp) # 20000370 <SetupLen>
    1804:	8531a823          	sw	s3,-1968(gp) # 20000368 <pDescr>
    1808:	44d2                	lw	s1,20(sp)
    180a:	4942                	lw	s2,16(sp)
    180c:	49b2                	lw	s3,12(sp)
    180e:	6105                	addi	sp,sp,32
    1810:	8082                	ret
    1812:	4459                	li	s0,22
    1814:	4959                	li	s2,22
    1816:	b7f9                	j	17e4 <USB30_StandardReq+0xcc>
    1818:	00274703          	lbu	a4,2(a4)
    181c:	4689                	li	a3,2
    181e:	04d70963          	beq	a4,a3,1870 <USB30_StandardReq+0x158>
    1822:	00e6ed63          	bltu	a3,a4,183c <USB30_StandardReq+0x124>
    1826:	cf25                	beqz	a4,189e <USB30_StandardReq+0x186>
    1828:	47c9                	li	a5,18
    182a:	0087f463          	bgeu	a5,s0,1832 <USB30_StandardReq+0x11a>
    182e:	4449                	li	s0,18
    1830:	4949                	li	s2,18
    1832:	200009b7          	lui	s3,0x20000
    1836:	19098993          	addi	s3,s3,400 # 20000190 <USB_StringVendor>
    183a:	bf4d                	j	17ec <USB30_StandardReq+0xd4>
    183c:	04f70463          	beq	a4,a5,1884 <USB30_StandardReq+0x16c>
    1840:	0ee00793          	li	a5,238
    1844:	f0f717e3          	bne	a4,a5,1752 <USB30_StandardReq+0x3a>
    1848:	47c9                	li	a5,18
    184a:	0087f463          	bgeu	a5,s0,1852 <USB30_StandardReq+0x13a>
    184e:	4449                	li	s0,18
    1850:	4949                	li	s2,18
    1852:	200009b7          	lui	s3,0x20000
    1856:	11898993          	addi	s3,s3,280 # 20000118 <USB_OSStringDescriptor>
    185a:	bf49                	j	17ec <USB30_StandardReq+0xd4>
    185c:	47c9                	li	a5,18
    185e:	0087f463          	bgeu	a5,s0,1866 <USB30_StandardReq+0x14e>
    1862:	4449                	li	s0,18
    1864:	4949                	li	s2,18
    1866:	200009b7          	lui	s3,0x20000
    186a:	25098993          	addi	s3,s3,592 # 20000250 <USB_SS_DeviceDescriptor>
    186e:	bfbd                	j	17ec <USB30_StandardReq+0xd4>
    1870:	47d1                	li	a5,20
    1872:	0087f463          	bgeu	a5,s0,187a <USB30_StandardReq+0x162>
    1876:	4451                	li	s0,20
    1878:	4951                	li	s2,20
    187a:	200009b7          	lui	s3,0x20000
    187e:	16898993          	addi	s3,s3,360 # 20000168 <USB_SS_StringProduct>
    1882:	b7ad                	j	17ec <USB30_StandardReq+0xd4>
    1884:	03c00793          	li	a5,60
    1888:	0087f663          	bgeu	a5,s0,1894 <USB30_StandardReq+0x17c>
    188c:	03c00413          	li	s0,60
    1890:	03c00913          	li	s2,60
    1894:	200009b7          	lui	s3,0x20000
    1898:	12c98993          	addi	s3,s3,300 # 2000012c <USB_StringSerial>
    189c:	bf81                	j	17ec <USB30_StandardReq+0xd4>
    189e:	4791                	li	a5,4
    18a0:	0087f463          	bgeu	a5,s0,18a8 <USB30_StandardReq+0x190>
    18a4:	4411                	li	s0,4
    18a6:	4911                	li	s2,4
    18a8:	200009b7          	lui	s3,0x20000
    18ac:	31c98993          	addi	s3,s3,796 # 2000031c <USB_StringLangID>
    18b0:	bf35                	j	17ec <USB30_StandardReq+0xd4>

000018b2 <TMR0_IRQHandler>:
TMR0_IRQHandler():
    18b2:	1141                	addi	sp,sp,-16
    18b4:	c622                	sw	s0,12(sp)
    18b6:	40002737          	lui	a4,0x40002
    18ba:	4785                	li	a5,1
    18bc:	00f70323          	sb	a5,6(a4) # 40002006 <_dmadata_end+0x1ffdec06>
    18c0:	85c1c703          	lbu	a4,-1956(gp) # 20000374 <link_sta>
    18c4:	0af70363          	beq	a4,a5,196a <TMR0_IRQHandler+0xb8>
    18c8:	85c1c703          	lbu	a4,-1956(gp) # 20000374 <link_sta>
    18cc:	478d                	li	a5,3
    18ce:	02f71a63          	bne	a4,a5,1902 <TMR0_IRQHandler+0x50>
    18d2:	4785                	li	a5,1
    18d4:	84f18e23          	sb	a5,-1956(gp) # 20000374 <link_sta>
    18d8:	40002737          	lui	a4,0x40002
    18dc:	00070123          	sb	zero,2(a4) # 40002002 <_dmadata_end+0x1ffdec02>
    18e0:	e000e7b7          	lui	a5,0xe000e
    18e4:	43b4                	lw	a3,64(a5)
    18e6:	4641                	li	a2,16
    18e8:	c3b0                	sw	a2,64(a5)
    18ea:	00020637          	lui	a2,0x20
    18ee:	18c7a023          	sw	a2,384(a5) # e000e180 <_dmadata_end+0xbffead80>
    18f2:	c3b4                	sw	a3,64(a5)
    18f4:	4789                	li	a5,2
    18f6:	00f70023          	sb	a5,0(a4)
    18fa:	4432                	lw	s0,12(sp)
    18fc:	0141                	addi	sp,sp,16
    18fe:	30200073          	mret
    1902:	e000e7b7          	lui	a5,0xe000e
    1906:	43b4                	lw	a3,64(a5)
    1908:	4741                	li	a4,16
    190a:	c3b8                	sw	a4,64(a5)
    190c:	00100637          	lui	a2,0x100
    1910:	18c7a023          	sw	a2,384(a5) # e000e180 <_dmadata_end+0xbffead80>
    1914:	c3b4                	sw	a3,64(a5)
    1916:	43b4                	lw	a3,64(a5)
    1918:	c3b8                	sw	a4,64(a5)
    191a:	00200737          	lui	a4,0x200
    191e:	18e7a023          	sw	a4,384(a5)
    1922:	c3b4                	sw	a3,64(a5)
    1924:	40008737          	lui	a4,0x40008
    1928:	4b1c                	lw	a5,16(a4)
    192a:	8b91                	andi	a5,a5,4
    192c:	fff5                	bnez	a5,1928 <TMR0_IRQHandler+0x76>
    192e:	435c                	lw	a5,4(a4)
    1930:	4505                	li	a0,1
    1932:	9bf1                	andi	a5,a5,-4
    1934:	c35c                	sw	a5,4(a4)
    1936:	435c                	lw	a5,4(a4)
    1938:	0027e793          	ori	a5,a5,2
    193c:	c35c                	sw	a5,4(a4)
    193e:	02800793          	li	a5,40
    1942:	c31c                	sw	a5,0(a4)
    1944:	47cd                	li	a5,19
    1946:	c35c                	sw	a5,4(a4)
    1948:	00072423          	sw	zero,8(a4) # 40008008 <_dmadata_end+0x1ffe4c08>
    194c:	4799                	li	a5,6
    194e:	d31c                	sw	a5,32(a4)
    1950:	400097b7          	lui	a5,0x40009
    1954:	0007a023          	sw	zero,0(a5) # 40009000 <_dmadata_end+0x1ffe5c00>
    1958:	02000737          	lui	a4,0x2000
    195c:	e000e7b7          	lui	a5,0xe000e
    1960:	10e7a023          	sw	a4,256(a5) # e000e100 <_dmadata_end+0xbffead00>
    1964:	171000ef          	jal	ra,22d4 <USB20_Device_Init>
    1968:	b7ad                	j	18d2 <TMR0_IRQHandler+0x20>
    196a:	84018e23          	sb	zero,-1956(gp) # 20000374 <link_sta>
    196e:	e000e7b7          	lui	a5,0xe000e
    1972:	43b4                	lw	a3,64(a5)
    1974:	4741                	li	a4,16
    1976:	c3b8                	sw	a4,64(a5)
    1978:	00100637          	lui	a2,0x100
    197c:	18c7a023          	sw	a2,384(a5) # e000e180 <_dmadata_end+0xbffead80>
    1980:	c3b4                	sw	a3,64(a5)
    1982:	43b4                	lw	a3,64(a5)
    1984:	c3b8                	sw	a4,64(a5)
    1986:	00200737          	lui	a4,0x200
    198a:	18e7a023          	sw	a4,384(a5)
    198e:	c3b4                	sw	a3,64(a5)
    1990:	40008737          	lui	a4,0x40008
    1994:	4b1c                	lw	a5,16(a4)
    1996:	8b91                	andi	a5,a5,4
    1998:	fff5                	bnez	a5,1994 <TMR0_IRQHandler+0xe2>
    199a:	435c                	lw	a5,4(a4)
    199c:	4432                	lw	s0,12(sp)
    199e:	9bf1                	andi	a5,a5,-4
    19a0:	c35c                	sw	a5,4(a4)
    19a2:	435c                	lw	a5,4(a4)
    19a4:	0027e793          	ori	a5,a5,2
    19a8:	c35c                	sw	a5,4(a4)
    19aa:	02800793          	li	a5,40
    19ae:	c31c                	sw	a5,0(a4)
    19b0:	47cd                	li	a5,19
    19b2:	c35c                	sw	a5,4(a4)
    19b4:	00072423          	sw	zero,8(a4) # 40008008 <_dmadata_end+0x1ffe4c08>
    19b8:	4799                	li	a5,6
    19ba:	d31c                	sw	a5,32(a4)
    19bc:	0141                	addi	sp,sp,16
    19be:	30200073          	mret

000019c2 <LINK_IRQHandler>:
LINK_IRQHandler():
    19c2:	40008737          	lui	a4,0x40008
    19c6:	475c                	lw	a5,12(a4)
    19c8:	1141                	addi	sp,sp,-16
    19ca:	6685                	lui	a3,0x1
    19cc:	c622                	sw	s0,12(sp)
    19ce:	8ff5                	and	a5,a5,a3
    19d0:	cf91                	beqz	a5,19ec <LINK_IRQHandler+0x2a>
    19d2:	14200793          	li	a5,322
    19d6:	c31c                	sw	a5,0(a4)
    19d8:	4b1c                	lw	a5,16(a4)
    19da:	8b91                	andi	a5,a5,4
    19dc:	fff5                	bnez	a5,19d8 <LINK_IRQHandler+0x16>
    19de:	435c                	lw	a5,4(a4)
    19e0:	9bf1                	andi	a5,a5,-4
    19e2:	c35c                	sw	a5,4(a4)
    19e4:	435c                	lw	a5,4(a4)
    19e6:	c35c                	sw	a5,4(a4)
    19e8:	6785                	lui	a5,0x1
    19ea:	c75c                	sw	a5,12(a4)
    19ec:	40008737          	lui	a4,0x40008
    19f0:	475c                	lw	a5,12(a4)
    19f2:	8b85                	andi	a5,a5,1
    19f4:	c7a9                	beqz	a5,1a3e <LINK_IRQHandler+0x7c>
    19f6:	4785                	li	a5,1
    19f8:	c75c                	sw	a5,12(a4)
    19fa:	85d1c603          	lbu	a2,-1955(gp) # 20000375 <tx_lmp_port>
    19fe:	20061f63          	bnez	a2,1c1c <LINK_IRQHandler+0x25a>
    1a02:	470d                	li	a4,3
    1a04:	84e18e23          	sb	a4,-1956(gp) # 20000374 <link_sta>
    1a08:	e000e7b7          	lui	a5,0xe000e
    1a0c:	43b4                	lw	a3,64(a5)
    1a0e:	4741                	li	a4,16
    1a10:	c3b8                	sw	a4,64(a5)
    1a12:	00020637          	lui	a2,0x20
    1a16:	18c7a023          	sw	a2,384(a5) # e000e180 <_dmadata_end+0xbffead80>
    1a1a:	c3b4                	sw	a3,64(a5)
    1a1c:	4609                	li	a2,2
    1a1e:	400026b7          	lui	a3,0x40002
    1a22:	00c68023          	sb	a2,0(a3) # 40002000 <_dmadata_end+0x1ffdec00>
    1a26:	00068123          	sb	zero,2(a3)
    1a2a:	43b4                	lw	a3,64(a5)
    1a2c:	c3b8                	sw	a4,64(a5)
    1a2e:	02000737          	lui	a4,0x2000
    1a32:	18e7a023          	sw	a4,384(a5)
    1a36:	c3b4                	sw	a3,64(a5)
    1a38:	4501                	li	a0,0
    1a3a:	09b000ef          	jal	ra,22d4 <USB20_Device_Init>
    1a3e:	40008737          	lui	a4,0x40008
    1a42:	475c                	lw	a5,12(a4)
    1a44:	8b91                	andi	a5,a5,4
    1a46:	cf89                	beqz	a5,1a60 <LINK_IRQHandler+0x9e>
    1a48:	4791                	li	a5,4
    1a4a:	c75c                	sw	a5,12(a4)
    1a4c:	4b1c                	lw	a5,16(a4)
    1a4e:	8b91                	andi	a5,a5,4
    1a50:	fff5                	bnez	a5,1a4c <LINK_IRQHandler+0x8a>
    1a52:	435c                	lw	a5,4(a4)
    1a54:	9bf1                	andi	a5,a5,-4
    1a56:	c35c                	sw	a5,4(a4)
    1a58:	435c                	lw	a5,4(a4)
    1a5a:	0027e793          	ori	a5,a5,2
    1a5e:	c35c                	sw	a5,4(a4)
    1a60:	40008737          	lui	a4,0x40008
    1a64:	475c                	lw	a5,12(a4)
    1a66:	8ba1                	andi	a5,a5,8
    1a68:	1c079b63          	bnez	a5,1c3e <LINK_IRQHandler+0x27c>
    1a6c:	40008737          	lui	a4,0x40008
    1a70:	475c                	lw	a5,12(a4)
    1a72:	001006b7          	lui	a3,0x100
    1a76:	8ff5                	and	a5,a5,a3
    1a78:	cf81                	beqz	a5,1a90 <LINK_IRQHandler+0xce>
    1a7a:	c754                	sw	a3,12(a4)
    1a7c:	4b1c                	lw	a5,16(a4)
    1a7e:	8b91                	andi	a5,a5,4
    1a80:	fff5                	bnez	a5,1a7c <LINK_IRQHandler+0xba>
    1a82:	435c                	lw	a5,4(a4)
    1a84:	9bf1                	andi	a5,a5,-4
    1a86:	c35c                	sw	a5,4(a4)
    1a88:	435c                	lw	a5,4(a4)
    1a8a:	0027e793          	ori	a5,a5,2
    1a8e:	c35c                	sw	a5,4(a4)
    1a90:	40008737          	lui	a4,0x40008
    1a94:	475c                	lw	a5,12(a4)
    1a96:	4007f793          	andi	a5,a5,1024
    1a9a:	c795                	beqz	a5,1ac6 <LINK_IRQHandler+0x104>
    1a9c:	40000793          	li	a5,1024
    1aa0:	c75c                	sw	a5,12(a4)
    1aa2:	4b1c                	lw	a5,16(a4)
    1aa4:	8b85                	andi	a5,a5,1
    1aa6:	20078563          	beqz	a5,1cb0 <LINK_IRQHandler+0x2ee>
    1aaa:	4b1c                	lw	a5,16(a4)
    1aac:	8b91                	andi	a5,a5,4
    1aae:	fff5                	bnez	a5,1aaa <LINK_IRQHandler+0xe8>
    1ab0:	435c                	lw	a5,4(a4)
    1ab2:	6685                	lui	a3,0x1
    1ab4:	9bf1                	andi	a5,a5,-4
    1ab6:	c35c                	sw	a5,4(a4)
    1ab8:	435c                	lw	a5,4(a4)
    1aba:	0027e793          	ori	a5,a5,2
    1abe:	c35c                	sw	a5,4(a4)
    1ac0:	435c                	lw	a5,4(a4)
    1ac2:	8fd5                	or	a5,a5,a3
    1ac4:	c35c                	sw	a5,4(a4)
    1ac6:	400086b7          	lui	a3,0x40008
    1aca:	46d8                	lw	a4,12(a3)
    1acc:	6785                	lui	a5,0x1
    1ace:	80078793          	addi	a5,a5,-2048 # 800 <__stack_size>
    1ad2:	8f7d                	and	a4,a4,a5
    1ad4:	cf19                	beqz	a4,1af2 <LINK_IRQHandler+0x130>
    1ad6:	4605                	li	a2,1
    1ad8:	84c18ea3          	sb	a2,-1955(gp) # 20000375 <tx_lmp_port>
    1adc:	c6dc                	sw	a5,12(a3)
    1ade:	40008737          	lui	a4,0x40008
    1ae2:	4b1c                	lw	a5,16(a4)
    1ae4:	8b91                	andi	a5,a5,4
    1ae6:	fff5                	bnez	a5,1ae2 <LINK_IRQHandler+0x120>
    1ae8:	435c                	lw	a5,4(a4)
    1aea:	9bf1                	andi	a5,a5,-4
    1aec:	c35c                	sw	a5,4(a4)
    1aee:	435c                	lw	a5,4(a4)
    1af0:	c35c                	sw	a5,4(a4)
    1af2:	40008737          	lui	a4,0x40008
    1af6:	475c                	lw	a5,12(a4)
    1af8:	6689                	lui	a3,0x2
    1afa:	8ff5                	and	a5,a5,a3
    1afc:	c7b1                	beqz	a5,1b48 <LINK_IRQHandler+0x186>
    1afe:	c754                	sw	a3,12(a4)
    1b00:	40008437          	lui	s0,0x40008
    1b04:	481c                	lw	a5,16(s0)
    1b06:	8b91                	andi	a5,a5,4
    1b08:	fff5                	bnez	a5,1b04 <LINK_IRQHandler+0x142>
    1b0a:	405c                	lw	a5,4(s0)
    1b0c:	9bf1                	andi	a5,a5,-4
    1b0e:	c05c                	sw	a5,4(s0)
    1b10:	405c                	lw	a5,4(s0)
    1b12:	0027e793          	ori	a5,a5,2
    1b16:	c05c                	sw	a5,4(s0)
    1b18:	831ff0ef          	jal	ra,1348 <USB30_BusReset>
    1b1c:	501c                	lw	a5,32(s0)
    1b1e:	40008737          	lui	a4,0x40008
    1b22:	07a2                	slli	a5,a5,0x8
    1b24:	83a1                	srli	a5,a5,0x8
    1b26:	d01c                	sw	a5,32(s0)
    1b28:	501c                	lw	a5,32(s0)
    1b2a:	d01c                	sw	a5,32(s0)
    1b2c:	405c                	lw	a5,4(s0)
    1b2e:	1007e793          	ori	a5,a5,256
    1b32:	c05c                	sw	a5,4(s0)
    1b34:	4b1c                	lw	a5,16(a4)
    1b36:	8b89                	andi	a5,a5,2
    1b38:	fff5                	bnez	a5,1b34 <LINK_IRQHandler+0x172>
    1b3a:	435c                	lw	a5,4(a4)
    1b3c:	4509                	li	a0,2
    1b3e:	eff7f793          	andi	a5,a5,-257
    1b42:	c35c                	sw	a5,4(a4)
    1b44:	b31fe0ef          	jal	ra,674 <bsp_wait_us_delay>
    1b48:	400087b7          	lui	a5,0x40008
    1b4c:	47d8                	lw	a4,12(a5)
    1b4e:	66a1                	lui	a3,0x8
    1b50:	8f75                	and	a4,a4,a3
    1b52:	c721                	beqz	a4,1b9a <LINK_IRQHandler+0x1d8>
    1b54:	5398                	lw	a4,32(a5)
    1b56:	80000637          	lui	a2,0x80000
    1b5a:	8f51                	or	a4,a4,a2
    1b5c:	d398                	sw	a4,32(a5)
    1b5e:	c7d4                	sw	a3,12(a5)
    1b60:	0607ae23          	sw	zero,124(a5) # 4000807c <_dmadata_end+0x1ffe4c7c>
    1b64:	08c7a703          	lw	a4,140(a5)
    1b68:	76c1                	lui	a3,0xffff0
    1b6a:	16fd                	addi	a3,a3,-1 # fffeffff <_dmadata_end+0xdffccbff>
    1b6c:	08e7a623          	sw	a4,140(a5)
    1b70:	09c7a703          	lw	a4,156(a5)
    1b74:	08e7ae23          	sw	a4,156(a5)
    1b78:	0887a703          	lw	a4,136(a5)
    1b7c:	08e7a423          	sw	a4,136(a5)
    1b80:	0987a703          	lw	a4,152(a5)
    1b84:	08e7ac23          	sw	a4,152(a5)
    1b88:	5398                	lw	a4,32(a5)
    1b8a:	0722                	slli	a4,a4,0x8
    1b8c:	8321                	srli	a4,a4,0x8
    1b8e:	d398                	sw	a4,32(a5)
    1b90:	5398                	lw	a4,32(a5)
    1b92:	d398                	sw	a4,32(a5)
    1b94:	43d8                	lw	a4,4(a5)
    1b96:	8f75                	and	a4,a4,a3
    1b98:	c3d8                	sw	a4,4(a5)
    1b9a:	400087b7          	lui	a5,0x40008
    1b9e:	47dc                	lw	a5,12(a5)
    1ba0:	0407f793          	andi	a5,a5,64
    1ba4:	c385                	beqz	a5,1bc4 <LINK_IRQHandler+0x202>
    1ba6:	40008737          	lui	a4,0x40008
    1baa:	4b1c                	lw	a5,16(a4)
    1bac:	8b91                	andi	a5,a5,4
    1bae:	fff5                	bnez	a5,1baa <LINK_IRQHandler+0x1e8>
    1bb0:	435c                	lw	a5,4(a4)
    1bb2:	9bf1                	andi	a5,a5,-4
    1bb4:	c35c                	sw	a5,4(a4)
    1bb6:	435c                	lw	a5,4(a4)
    1bb8:	0017e793          	ori	a5,a5,1
    1bbc:	c35c                	sw	a5,4(a4)
    1bbe:	04000793          	li	a5,64
    1bc2:	c75c                	sw	a5,12(a4)
    1bc4:	400087b7          	lui	a5,0x40008
    1bc8:	47dc                	lw	a5,12(a5)
    1bca:	0207f793          	andi	a5,a5,32
    1bce:	c385                	beqz	a5,1bee <LINK_IRQHandler+0x22c>
    1bd0:	40008737          	lui	a4,0x40008
    1bd4:	4b1c                	lw	a5,16(a4)
    1bd6:	8b91                	andi	a5,a5,4
    1bd8:	fff5                	bnez	a5,1bd4 <LINK_IRQHandler+0x212>
    1bda:	435c                	lw	a5,4(a4)
    1bdc:	9bf1                	andi	a5,a5,-4
    1bde:	c35c                	sw	a5,4(a4)
    1be0:	435c                	lw	a5,4(a4)
    1be2:	0027e793          	ori	a5,a5,2
    1be6:	c35c                	sw	a5,4(a4)
    1be8:	02000793          	li	a5,32
    1bec:	c75c                	sw	a5,12(a4)
    1bee:	400087b7          	lui	a5,0x40008
    1bf2:	47dc                	lw	a5,12(a5)
    1bf4:	8bc1                	andi	a5,a5,16
    1bf6:	cf99                	beqz	a5,1c14 <LINK_IRQHandler+0x252>
    1bf8:	40008737          	lui	a4,0x40008
    1bfc:	4b1c                	lw	a5,16(a4)
    1bfe:	8b91                	andi	a5,a5,4
    1c00:	fff5                	bnez	a5,1bfc <LINK_IRQHandler+0x23a>
    1c02:	435c                	lw	a5,4(a4)
    1c04:	9bf1                	andi	a5,a5,-4
    1c06:	c35c                	sw	a5,4(a4)
    1c08:	435c                	lw	a5,4(a4)
    1c0a:	0027e793          	ori	a5,a5,2
    1c0e:	c35c                	sw	a5,4(a4)
    1c10:	47c1                	li	a5,16
    1c12:	c75c                	sw	a5,12(a4)
    1c14:	4432                	lw	s0,12(sp)
    1c16:	0141                	addi	sp,sp,16
    1c18:	30200073          	mret
    1c1c:	28000613          	li	a2,640
    1c20:	c730                	sw	a2,72(a4)
    1c22:	00020637          	lui	a2,0x20
    1c26:	0611                	addi	a2,a2,4 # 20004 <_data_lma+0x1a764>
    1c28:	c770                	sw	a2,76(a4)
    1c2a:	04072823          	sw	zero,80(a4) # 40008050 <_dmadata_end+0x1ffe4c50>
    1c2e:	84018ea3          	sb	zero,-1955(gp) # 20000375 <tx_lmp_port>
    1c32:	84f186a3          	sb	a5,-1971(gp) # 20000365 <g_DeviceConnectstatus>
    1c36:	470d                	li	a4,3
    1c38:	84e18623          	sb	a4,-1972(gp) # 20000364 <g_DeviceUsbType>
    1c3c:	b3d9                	j	1a02 <LINK_IRQHandler+0x40>
    1c3e:	47a1                	li	a5,8
    1c40:	c75c                	sw	a5,12(a4)
    1c42:	4705                	li	a4,1
    1c44:	84e18e23          	sb	a4,-1956(gp) # 20000374 <link_sta>
    1c48:	40008737          	lui	a4,0x40008
    1c4c:	4b1c                	lw	a5,16(a4)
    1c4e:	8b91                	andi	a5,a5,4
    1c50:	fff5                	bnez	a5,1c4c <LINK_IRQHandler+0x28a>
    1c52:	435c                	lw	a5,4(a4)
    1c54:	00100637          	lui	a2,0x100
    1c58:	4505                	li	a0,1
    1c5a:	9bf1                	andi	a5,a5,-4
    1c5c:	c35c                	sw	a5,4(a4)
    1c5e:	4354                	lw	a3,4(a4)
    1c60:	e000e7b7          	lui	a5,0xe000e
    1c64:	0026e693          	ori	a3,a3,2
    1c68:	c354                	sw	a3,4(a4)
    1c6a:	02800693          	li	a3,40
    1c6e:	c314                	sw	a3,0(a4)
    1c70:	46cd                	li	a3,19
    1c72:	c354                	sw	a3,4(a4)
    1c74:	00072423          	sw	zero,8(a4) # 40008008 <_dmadata_end+0x1ffe4c08>
    1c78:	4699                	li	a3,6
    1c7a:	d314                	sw	a3,32(a4)
    1c7c:	43b4                	lw	a3,64(a5)
    1c7e:	4741                	li	a4,16
    1c80:	c3b8                	sw	a4,64(a5)
    1c82:	18c7a023          	sw	a2,384(a5) # e000e180 <_dmadata_end+0xbffead80>
    1c86:	c3b4                	sw	a3,64(a5)
    1c88:	4609                	li	a2,2
    1c8a:	400026b7          	lui	a3,0x40002
    1c8e:	00c68023          	sb	a2,0(a3) # 40002000 <_dmadata_end+0x1ffdec00>
    1c92:	00068123          	sb	zero,2(a3)
    1c96:	43b4                	lw	a3,64(a5)
    1c98:	c3b8                	sw	a4,64(a5)
    1c9a:	00020737          	lui	a4,0x20
    1c9e:	18e7a023          	sw	a4,384(a5)
    1ca2:	c3b4                	sw	a3,64(a5)
    1ca4:	02000737          	lui	a4,0x2000
    1ca8:	10e7a023          	sw	a4,256(a5)
    1cac:	2525                	jal	22d4 <USB20_Device_Init>
    1cae:	bb7d                	j	1a6c <LINK_IRQHandler+0xaa>
    1cb0:	00072423          	sw	zero,8(a4) # 2000008 <_data_lma+0x1ffa768>
    1cb4:	7d000513          	li	a0,2000
    1cb8:	9bdfe0ef          	jal	ra,674 <bsp_wait_us_delay>
    1cbc:	e8cff0ef          	jal	ra,1348 <USB30_BusReset>
    1cc0:	4709                	li	a4,2
    1cc2:	84e186a3          	sb	a4,-1971(gp) # 20000365 <g_DeviceConnectstatus>
    1cc6:	84018623          	sb	zero,-1972(gp) # 20000364 <g_DeviceUsbType>
    1cca:	bbf5                	j	1ac6 <LINK_IRQHandler+0x104>

00001ccc <USBSS_IRQHandler>:
USBSS_IRQHandler():
    1ccc:	1101                	addi	sp,sp,-32
    1cce:	ce22                	sw	s0,28(sp)
    1cd0:	40008437          	lui	s0,0x40008
    1cd4:	505c                	lw	a5,36(s0)
    1cd6:	cc26                	sw	s1,24(sp)
    1cd8:	ca4a                	sw	s2,20(sp)
    1cda:	c84e                	sw	s3,16(sp)
    1cdc:	c652                	sw	s4,12(sp)
    1cde:	0017f713          	andi	a4,a5,1
    1ce2:	ef11                	bnez	a4,1cfe <USBSS_IRQHandler+0x32>
    1ce4:	0027f713          	andi	a4,a5,2
    1ce8:	e755                	bnez	a4,1d94 <USBSS_IRQHandler+0xc8>
    1cea:	8ba1                	andi	a5,a5,8
    1cec:	eff1                	bnez	a5,1dc8 <USBSS_IRQHandler+0xfc>
    1cee:	4472                	lw	s0,28(sp)
    1cf0:	44e2                	lw	s1,24(sp)
    1cf2:	4952                	lw	s2,20(sp)
    1cf4:	49c2                	lw	s3,16(sp)
    1cf6:	4a32                	lw	s4,12(sp)
    1cf8:	6105                	addi	sp,sp,32
    1cfa:	30200073          	mret
    1cfe:	0087d713          	srli	a4,a5,0x8
    1d02:	8b1d                	andi	a4,a4,7
    1d04:	83b1                	srli	a5,a5,0xc
    1d06:	8b85                	andi	a5,a5,1
    1d08:	cb39                	beqz	a4,1d5e <USBSS_IRQHandler+0x92>
    1d0a:	cbf1                	beqz	a5,1dde <USBSS_IRQHandler+0x112>
    1d0c:	4789                	li	a5,2
    1d0e:	28f70663          	beq	a4,a5,1f9a <USBSS_IRQHandler+0x2ce>
    1d12:	1775                	addi	a4,a4,-3
    1d14:	0ff77713          	zext.b	a4,a4
    1d18:	4791                	li	a5,4
    1d1a:	fce7fae3          	bgeu	a5,a4,1cee <USBSS_IRQHandler+0x22>
    1d1e:	08c42703          	lw	a4,140(s0) # 4000808c <_dmadata_end+0x1ffe4c8c>
    1d22:	8341                	srli	a4,a4,0x10
    1d24:	8b7d                	andi	a4,a4,31
    1d26:	2c071263          	bnez	a4,1fea <USBSS_IRQHandler+0x31e>
    1d2a:	200227b7          	lui	a5,0x20022
    1d2e:	20078793          	addi	a5,a5,512 # 20022200 <endp1Tbuff>
    1d32:	08f42023          	sw	a5,128(s0)
    1d36:	08c42783          	lw	a5,140(s0)
    1d3a:	03e00737          	lui	a4,0x3e00
    1d3e:	8ff9                	and	a5,a5,a4
    1d40:	08f42623          	sw	a5,140(s0)
    1d44:	08c42783          	lw	a5,140(s0)
    1d48:	14040737          	lui	a4,0x14040
    1d4c:	40070713          	addi	a4,a4,1024 # 14040400 <_data_lma+0x1403ab60>
    1d50:	8fd9                	or	a5,a5,a4
    1d52:	08f42623          	sw	a5,140(s0)
    1d56:	10700793          	li	a5,263
    1d5a:	c07c                	sw	a5,68(s0)
    1d5c:	bf49                	j	1cee <USBSS_IRQHandler+0x22>
    1d5e:	cfe9                	beqz	a5,1e38 <USBSS_IRQHandler+0x16c>
    1d60:	8541c703          	lbu	a4,-1964(gp) # 2000036c <SetupReqCode>
    1d64:	4799                	li	a5,6
    1d66:	16f70563          	beq	a4,a5,1ed0 <USBSS_IRQHandler+0x204>
    1d6a:	8401a423          	sw	zero,-1976(gp) # 20000360 <count.0>
    1d6e:	04100713          	li	a4,65
    1d72:	400087b7          	lui	a5,0x40008
    1d76:	c3f8                	sw	a4,68(a5)
    1d78:	4472                	lw	s0,28(sp)
    1d7a:	04010737          	lui	a4,0x4010
    1d7e:	dfb8                	sw	a4,120(a5)
    1d80:	14010737          	lui	a4,0x14010
    1d84:	dff8                	sw	a4,124(a5)
    1d86:	44e2                	lw	s1,24(sp)
    1d88:	4952                	lw	s2,20(sp)
    1d8a:	49c2                	lw	s3,16(sp)
    1d8c:	4a32                	lw	s4,12(sp)
    1d8e:	6105                	addi	sp,sp,32
    1d90:	30200073          	mret
    1d94:	4c3c                	lw	a5,88(s0)
    1d96:	0a000713          	li	a4,160
    1d9a:	1e07f793          	andi	a5,a5,480
    1d9e:	00e79963          	bne	a5,a4,1db0 <USBSS_IRQHandler+0xe4>
    1da2:	2c000793          	li	a5,704
    1da6:	c43c                	sw	a5,72(s0)
    1da8:	04042623          	sw	zero,76(s0)
    1dac:	04042823          	sw	zero,80(s0)
    1db0:	4472                	lw	s0,28(sp)
    1db2:	400087b7          	lui	a5,0x40008
    1db6:	4709                	li	a4,2
    1db8:	d3d8                	sw	a4,36(a5)
    1dba:	44e2                	lw	s1,24(sp)
    1dbc:	4952                	lw	s2,20(sp)
    1dbe:	49c2                	lw	s3,16(sp)
    1dc0:	4a32                	lw	s4,12(sp)
    1dc2:	6105                	addi	sp,sp,32
    1dc4:	30200073          	mret
    1dc8:	581c                	lw	a5,48(s0)
    1dca:	44e2                	lw	s1,24(sp)
    1dcc:	47a1                	li	a5,8
    1dce:	d05c                	sw	a5,36(s0)
    1dd0:	4472                	lw	s0,28(sp)
    1dd2:	4952                	lw	s2,20(sp)
    1dd4:	49c2                	lw	s3,16(sp)
    1dd6:	4a32                	lw	s4,12(sp)
    1dd8:	6105                	addi	sp,sp,32
    1dda:	30200073          	mret
    1dde:	4789                	li	a5,2
    1de0:	18f70063          	beq	a4,a5,1f60 <USBSS_IRQHandler+0x294>
    1de4:	1775                	addi	a4,a4,-3 # 1400fffd <_data_lma+0x1400a75d>
    1de6:	0ff77713          	zext.b	a4,a4
    1dea:	4791                	li	a5,4
    1dec:	f0e7f1e3          	bgeu	a5,a4,1cee <USBSS_IRQHandler+0x22>
    1df0:	08842703          	lw	a4,136(s0)
    1df4:	8341                	srli	a4,a4,0x10
    1df6:	8b7d                	andi	a4,a4,31
    1df8:	2c070163          	beqz	a4,20ba <USBSS_IRQHandler+0x3ee>
    1dfc:	08842603          	lw	a2,136(s0)
    1e00:	03e005b7          	lui	a1,0x3e00
    1e04:	86ba                	mv	a3,a4
    1e06:	8e6d                	and	a2,a2,a1
    1e08:	08c42423          	sw	a2,136(s0)
    1e0c:	08842603          	lw	a2,136(s0)
    1e10:	00e7f363          	bgeu	a5,a4,1e16 <USBSS_IRQHandler+0x14a>
    1e14:	4691                	li	a3,4
    1e16:	0ff6f793          	zext.b	a5,a3
    1e1a:	01079713          	slli	a4,a5,0x10
    1e1e:	8f51                	or	a4,a4,a2
    1e20:	04000637          	lui	a2,0x4000
    1e24:	400086b7          	lui	a3,0x40008
    1e28:	8f51                	or	a4,a4,a2
    1e2a:	079a                	slli	a5,a5,0x6
    1e2c:	08e6a423          	sw	a4,136(a3) # 40008088 <_dmadata_end+0x1ffe4c88>
    1e30:	0057e793          	ori	a5,a5,5
    1e34:	c2fc                	sw	a5,68(a3)
    1e36:	bd65                	j	1cee <USBSS_IRQHandler+0x22>
    1e38:	5c3c                	lw	a5,120(s0)
    1e3a:	00179713          	slli	a4,a5,0x1
    1e3e:	00074c63          	bltz	a4,1e56 <USBSS_IRQHandler+0x18a>
    1e42:	078a                	slli	a5,a5,0x2
    1e44:	0407c863          	bltz	a5,1e94 <USBSS_IRQHandler+0x1c8>
    1e48:	04100793          	li	a5,65
    1e4c:	c07c                	sw	a5,68(s0)
    1e4e:	040107b7          	lui	a5,0x4010
    1e52:	dc3c                	sw	a5,120(s0)
    1e54:	bd69                	j	1cee <USBSS_IRQHandler+0x22>
    1e56:	200237b7          	lui	a5,0x20023
    1e5a:	06042c23          	sw	zero,120(s0)
    1e5e:	2007c403          	lbu	s0,512(a5) # 20023200 <endp0RTbuff>
    1e62:	06047793          	andi	a5,s0,96
    1e66:	c3b5                	beqz	a5,1eca <USBSS_IRQHandler+0x1fe>
    1e68:	f6aff0ef          	jal	ra,15d2 <USB30_NonStandardReq>
    1e6c:	0462                	slli	s0,s0,0x18
    1e6e:	8461                	srai	s0,s0,0x18
    1e70:	67c1                	lui	a5,0x10
    1e72:	0c044563          	bltz	s0,1f3c <USBSS_IRQHandler+0x270>
    1e76:	fff78713          	addi	a4,a5,-1 # ffff <_data_lma+0xa75f>
    1e7a:	14e50f63          	beq	a0,a4,1fd8 <USBSS_IRQHandler+0x30c>
    1e7e:	22051663          	bnez	a0,20aa <USBSS_IRQHandler+0x3de>
    1e82:	400087b7          	lui	a5,0x40008
    1e86:	04100713          	li	a4,65
    1e8a:	c3f8                	sw	a4,68(a5)
    1e8c:	04010737          	lui	a4,0x4010
    1e90:	dfb8                	sw	a4,120(a5)
    1e92:	bdb1                	j	1cee <USBSS_IRQHandler+0x22>
    1e94:	8541c703          	lbu	a4,-1964(gp) # 2000036c <SetupReqCode>
    1e98:	4795                	li	a5,5
    1e9a:	02f71163          	bne	a4,a5,1ebc <USBSS_IRQHandler+0x1f0>
    1e9e:	478d                	li	a5,3
    1ea0:	84f18623          	sb	a5,-1972(gp) # 20000364 <g_DeviceUsbType>
    1ea4:	84f186a3          	sb	a5,-1971(gp) # 20000365 <g_DeviceConnectstatus>
    1ea8:	5018                	lw	a4,32(s0)
    1eaa:	8581a783          	lw	a5,-1960(gp) # 20000370 <SetupLen>
    1eae:	0722                	slli	a4,a4,0x8
    1eb0:	8321                	srli	a4,a4,0x8
    1eb2:	d018                	sw	a4,32(s0)
    1eb4:	5018                	lw	a4,32(s0)
    1eb6:	07e2                	slli	a5,a5,0x18
    1eb8:	8fd9                	or	a5,a5,a4
    1eba:	d01c                	sw	a5,32(s0)
    1ebc:	400087b7          	lui	a5,0x40008
    1ec0:	0607ac23          	sw	zero,120(a5) # 40008078 <_dmadata_end+0x1ffe4c78>
    1ec4:	0607ae23          	sw	zero,124(a5)
    1ec8:	b51d                	j	1cee <USBSS_IRQHandler+0x22>
    1eca:	84fff0ef          	jal	ra,1718 <USB30_StandardReq>
    1ece:	bf79                	j	1e6c <USBSS_IRQHandler+0x1a0>
    1ed0:	8581a483          	lw	s1,-1960(gp) # 20000370 <SetupLen>
    1ed4:	20000793          	li	a5,512
    1ed8:	8426                	mv	s0,s1
    1eda:	0097f463          	bgeu	a5,s1,1ee2 <USBSS_IRQHandler+0x216>
    1ede:	20000413          	li	s0,512
    1ee2:	8501a903          	lw	s2,-1968(gp) # 20000368 <pDescr>
    1ee6:	20023537          	lui	a0,0x20023
    1eea:	8622                	mv	a2,s0
    1eec:	85ca                	mv	a1,s2
    1eee:	20050513          	addi	a0,a0,512 # 20023200 <endp0RTbuff>
    1ef2:	9cefe0ef          	jal	ra,c0 <memcpy>
    1ef6:	8481a683          	lw	a3,-1976(gp) # 20000360 <count.0>
    1efa:	40848733          	sub	a4,s1,s0
    1efe:	9922                	add	s2,s2,s0
    1f00:	0685                	addi	a3,a3,1
    1f02:	84e1ac23          	sw	a4,-1960(gp) # 20000370 <SetupLen>
    1f06:	8521a823          	sw	s2,-1968(gp) # 20000368 <pDescr>
    1f0a:	84d1a423          	sw	a3,-1976(gp) # 20000360 <count.0>
    1f0e:	e4048ee3          	beqz	s1,1d6a <USBSS_IRQHandler+0x9e>
    1f12:	40008737          	lui	a4,0x40008
    1f16:	04100793          	li	a5,65
    1f1a:	c37c                	sw	a5,68(a4)
    1f1c:	06072c23          	sw	zero,120(a4) # 40008078 <_dmadata_end+0x1ffe4c78>
    1f20:	5f7c                	lw	a5,124(a4)
    1f22:	ec2005b7          	lui	a1,0xec200
    1f26:	c0058593          	addi	a1,a1,-1024 # ec1ffc00 <_dmadata_end+0xcc1dc800>
    1f2a:	8fed                	and	a5,a5,a1
    1f2c:	06d6                	slli	a3,a3,0x15
    1f2e:	8fc1                	or	a5,a5,s0
    1f30:	8fd5                	or	a5,a5,a3
    1f32:	140106b7          	lui	a3,0x14010
    1f36:	8fd5                	or	a5,a5,a3
    1f38:	df7c                	sw	a5,124(a4)
    1f3a:	bb55                	j	1cee <USBSS_IRQHandler+0x22>
    1f3c:	17fd                	addi	a5,a5,-1
    1f3e:	08f50d63          	beq	a0,a5,1fd8 <USBSS_IRQHandler+0x30c>
    1f42:	d121                	beqz	a0,1e82 <USBSS_IRQHandler+0x1b6>
    1f44:	20000793          	li	a5,512
    1f48:	daa7e3e3          	bltu	a5,a0,1cee <USBSS_IRQHandler+0x22>
    1f4c:	400087b7          	lui	a5,0x40008
    1f50:	04100713          	li	a4,65
    1f54:	c3f8                	sw	a4,68(a5)
    1f56:	14010737          	lui	a4,0x14010
    1f5a:	8d59                	or	a0,a0,a4
    1f5c:	dfe8                	sw	a0,124(a5)
    1f5e:	bb41                	j	1cee <USBSS_IRQHandler+0x22>
    1f60:	09842783          	lw	a5,152(s0)
    1f64:	83c1                	srli	a5,a5,0x10
    1f66:	8bfd                	andi	a5,a5,31
    1f68:	e3e9                	bnez	a5,202a <USBSS_IRQHandler+0x35e>
    1f6a:	09842783          	lw	a5,152(s0)
    1f6e:	03e00737          	lui	a4,0x3e00
    1f72:	8ff9                	and	a5,a5,a4
    1f74:	08f42c23          	sw	a5,152(s0)
    1f78:	200207b7          	lui	a5,0x20020
    1f7c:	20078793          	addi	a5,a5,512 # 20020200 <endp2RTbuff>
    1f80:	08f42823          	sw	a5,144(s0)
    1f84:	09842783          	lw	a5,152(s0)
    1f88:	04040737          	lui	a4,0x4040
    1f8c:	8fd9                	or	a5,a5,a4
    1f8e:	08f42c23          	sw	a5,152(s0)
    1f92:	10900793          	li	a5,265
    1f96:	c07c                	sw	a5,68(s0)
    1f98:	bb99                	j	1cee <USBSS_IRQHandler+0x22>
    1f9a:	09c42783          	lw	a5,156(s0)
    1f9e:	83c1                	srli	a5,a5,0x10
    1fa0:	8bfd                	andi	a5,a5,31
    1fa2:	e3f9                	bnez	a5,2068 <USBSS_IRQHandler+0x39c>
    1fa4:	200207b7          	lui	a5,0x20020
    1fa8:	20078793          	addi	a5,a5,512 # 20020200 <endp2RTbuff>
    1fac:	08f42a23          	sw	a5,148(s0)
    1fb0:	09c42783          	lw	a5,156(s0)
    1fb4:	03e00737          	lui	a4,0x3e00
    1fb8:	8ff9                	and	a5,a5,a4
    1fba:	08f42e23          	sw	a5,156(s0)
    1fbe:	09c42783          	lw	a5,156(s0)
    1fc2:	14040737          	lui	a4,0x14040
    1fc6:	40070713          	addi	a4,a4,1024 # 14040400 <_data_lma+0x1403ab60>
    1fca:	8fd9                	or	a5,a5,a4
    1fcc:	08f42e23          	sw	a5,156(s0)
    1fd0:	10b00793          	li	a5,267
    1fd4:	c07c                	sw	a5,68(s0)
    1fd6:	bb21                	j	1cee <USBSS_IRQHandler+0x22>
    1fd8:	400087b7          	lui	a5,0x40008
    1fdc:	04100713          	li	a4,65
    1fe0:	c3f8                	sw	a4,68(a5)
    1fe2:	08010737          	lui	a4,0x8010
    1fe6:	dff8                	sw	a4,124(a5)
    1fe8:	b319                	j	1cee <USBSS_IRQHandler+0x22>
    1fea:	08c42603          	lw	a2,140(s0)
    1fee:	03e005b7          	lui	a1,0x3e00
    1ff2:	86ba                	mv	a3,a4
    1ff4:	8e6d                	and	a2,a2,a1
    1ff6:	08c42623          	sw	a2,140(s0)
    1ffa:	08c42603          	lw	a2,140(s0)
    1ffe:	00e7f363          	bgeu	a5,a4,2004 <USBSS_IRQHandler+0x338>
    2002:	4691                	li	a3,4
    2004:	0ff6f793          	zext.b	a5,a3
    2008:	01079713          	slli	a4,a5,0x10
    200c:	140006b7          	lui	a3,0x14000
    2010:	8f51                	or	a4,a4,a2
    2012:	40068693          	addi	a3,a3,1024 # 14000400 <_data_lma+0x13ffab60>
    2016:	40008637          	lui	a2,0x40008
    201a:	8f55                	or	a4,a4,a3
    201c:	079a                	slli	a5,a5,0x6
    201e:	08e62623          	sw	a4,140(a2) # 4000808c <_dmadata_end+0x1ffe4c8c>
    2022:	0077e793          	ori	a5,a5,7
    2026:	c27c                	sw	a5,68(a2)
    2028:	b1d9                	j	1cee <USBSS_IRQHandler+0x22>
    202a:	09842703          	lw	a4,152(s0)
    202e:	03e006b7          	lui	a3,0x3e00
    2032:	4611                	li	a2,4
    2034:	8f75                	and	a4,a4,a3
    2036:	08e42c23          	sw	a4,152(s0)
    203a:	09842683          	lw	a3,152(s0)
    203e:	873e                	mv	a4,a5
    2040:	00f67363          	bgeu	a2,a5,2046 <USBSS_IRQHandler+0x37a>
    2044:	4711                	li	a4,4
    2046:	0ff77793          	zext.b	a5,a4
    204a:	01079713          	slli	a4,a5,0x10
    204e:	8f55                	or	a4,a4,a3
    2050:	04000637          	lui	a2,0x4000
    2054:	400086b7          	lui	a3,0x40008
    2058:	8f51                	or	a4,a4,a2
    205a:	079a                	slli	a5,a5,0x6
    205c:	08e6ac23          	sw	a4,152(a3) # 40008098 <_dmadata_end+0x1ffe4c98>
    2060:	0097e793          	ori	a5,a5,9
    2064:	c2fc                	sw	a5,68(a3)
    2066:	b161                	j	1cee <USBSS_IRQHandler+0x22>
    2068:	09c42703          	lw	a4,156(s0)
    206c:	03e006b7          	lui	a3,0x3e00
    2070:	4611                	li	a2,4
    2072:	8f75                	and	a4,a4,a3
    2074:	08e42e23          	sw	a4,156(s0)
    2078:	09c42683          	lw	a3,156(s0)
    207c:	873e                	mv	a4,a5
    207e:	00f67363          	bgeu	a2,a5,2084 <USBSS_IRQHandler+0x3b8>
    2082:	4711                	li	a4,4
    2084:	0ff77793          	zext.b	a5,a4
    2088:	01079713          	slli	a4,a5,0x10
    208c:	8f55                	or	a4,a4,a3
    208e:	140006b7          	lui	a3,0x14000
    2092:	40068693          	addi	a3,a3,1024 # 14000400 <_data_lma+0x13ffab60>
    2096:	40008637          	lui	a2,0x40008
    209a:	8f55                	or	a4,a4,a3
    209c:	079a                	slli	a5,a5,0x6
    209e:	08e62e23          	sw	a4,156(a2) # 4000809c <_dmadata_end+0x1ffe4c9c>
    20a2:	00b7e793          	ori	a5,a5,11
    20a6:	c27c                	sw	a5,68(a2)
    20a8:	b199                	j	1cee <USBSS_IRQHandler+0x22>
    20aa:	40008737          	lui	a4,0x40008
    20ae:	0785                	addi	a5,a5,1 # 40008001 <_dmadata_end+0x1ffe4c01>
    20b0:	c37c                	sw	a5,68(a4)
    20b2:	040107b7          	lui	a5,0x4010
    20b6:	df3c                	sw	a5,120(a4)
    20b8:	b91d                	j	1cee <USBSS_IRQHandler+0x22>
    20ba:	200214b7          	lui	s1,0x20021
    20be:	20022637          	lui	a2,0x20022
    20c2:	20048593          	addi	a1,s1,512 # 20021200 <endp1Rbuff>
    20c6:	20060613          	addi	a2,a2,512 # 20022200 <endp1Tbuff>
    20ca:	4505                	li	a0,1
    20cc:	14c010ef          	jal	ra,3218 <usb_cmd_rx>
    20d0:	08842783          	lw	a5,136(s0)
    20d4:	03e00737          	lui	a4,0x3e00
    20d8:	20048493          	addi	s1,s1,512
    20dc:	8ff9                	and	a5,a5,a4
    20de:	08f42423          	sw	a5,136(s0)
    20e2:	08942223          	sw	s1,132(s0)
    20e6:	08842783          	lw	a5,136(s0)
    20ea:	04040737          	lui	a4,0x4040
    20ee:	8fd9                	or	a5,a5,a4
    20f0:	08f42423          	sw	a5,136(s0)
    20f4:	10500793          	li	a5,261
    20f8:	c07c                	sw	a5,68(s0)
    20fa:	bed5                	j	1cee <USBSS_IRQHandler+0x22>

000020fc <USB2_force>:
USB2_force():
    20fc:	1141                	addi	sp,sp,-16
    20fe:	c606                	sw	ra,12(sp)
    2100:	400087b7          	lui	a5,0x40008
    2104:	4721                	li	a4,8
    2106:	c7d8                	sw	a4,12(a5)
    2108:	4501                	li	a0,0
    210a:	b84ff0ef          	jal	ra,148e <USB30D_init>
    210e:	e000e6b7          	lui	a3,0xe000e
    2112:	42b8                	lw	a4,64(a3)
    2114:	47c1                	li	a5,16
    2116:	c2bc                	sw	a5,64(a3)
    2118:	00100637          	lui	a2,0x100
    211c:	18c6a023          	sw	a2,384(a3) # e000e180 <_dmadata_end+0xbffead80>
    2120:	c2b8                	sw	a4,64(a3)
    2122:	40002637          	lui	a2,0x40002
    2126:	4709                	li	a4,2
    2128:	00e60023          	sb	a4,0(a2) # 40002000 <_dmadata_end+0x1ffdec00>
    212c:	00060123          	sb	zero,2(a2)
    2130:	42b0                	lw	a2,64(a3)
    2132:	c2bc                	sw	a5,64(a3)
    2134:	000207b7          	lui	a5,0x20
    2138:	18f6a023          	sw	a5,384(a3)
    213c:	c2b0                	sw	a2,64(a3)
    213e:	02000637          	lui	a2,0x2000
    2142:	400097b7          	lui	a5,0x40009
    2146:	10c6a023          	sw	a2,256(a3)
    214a:	00078023          	sb	zero,0(a5) # 40009000 <_dmadata_end+0x1ffe5c00>
    214e:	03900693          	li	a3,57
    2152:	00d78023          	sb	a3,0(a5)
    2156:	02700693          	li	a3,39
    215a:	00d78123          	sb	a3,2(a5)
    215e:	fcc00693          	li	a3,-52
    2162:	00d78823          	sb	a3,16(a5)
    2166:	00d788a3          	sb	a3,17(a5)
    216a:	00d78923          	sb	a3,18(a5)
    216e:	46b1                	li	a3,12
    2170:	00d789a3          	sb	a3,19(a5)
    2174:	04000693          	li	a3,64
    2178:	04d79823          	sh	a3,80(a5)
    217c:	20000693          	li	a3,512
    2180:	04d79a23          	sh	a3,84(a5)
    2184:	20023637          	lui	a2,0x20023
    2188:	04d79c23          	sh	a3,88(a5)
    218c:	20060613          	addi	a2,a2,512 # 20023200 <endp0RTbuff>
    2190:	cbd0                	sw	a2,20(a5)
    2192:	20022637          	lui	a2,0x20022
    2196:	20060613          	addi	a2,a2,512 # 20022200 <endp1Tbuff>
    219a:	dbd0                	sw	a2,52(a5)
    219c:	20021637          	lui	a2,0x20021
    21a0:	20060613          	addi	a2,a2,512 # 20021200 <endp1Rbuff>
    21a4:	cf90                	sw	a2,24(a5)
    21a6:	20020637          	lui	a2,0x20020
    21aa:	20060613          	addi	a2,a2,512 # 20020200 <endp2RTbuff>
    21ae:	df90                	sw	a2,56(a5)
    21b0:	cfd0                	sw	a2,28(a5)
    21b2:	06079823          	sh	zero,112(a5)
    21b6:	06078923          	sb	zero,114(a5)
    21ba:	060789a3          	sb	zero,115(a5)
    21be:	06d79a23          	sh	a3,116(a5)
    21c2:	06078b23          	sb	zero,118(a5)
    21c6:	06078ba3          	sb	zero,119(a5)
    21ca:	06d79c23          	sh	a3,120(a5)
    21ce:	06078d23          	sb	zero,122(a5)
    21d2:	06078da3          	sb	zero,123(a5)
    21d6:	06079e23          	sh	zero,124(a5)
    21da:	06e78f23          	sb	a4,126(a5)
    21de:	06e78fa3          	sb	a4,127(a5)
    21e2:	08079023          	sh	zero,128(a5)
    21e6:	08e78123          	sb	a4,130(a5)
    21ea:	08e781a3          	sb	a4,131(a5)
    21ee:	08079223          	sh	zero,132(a5)
    21f2:	08e78323          	sb	a4,134(a5)
    21f6:	08e783a3          	sb	a4,135(a5)
    21fa:	08079423          	sh	zero,136(a5)
    21fe:	08e78523          	sb	a4,138(a5)
    2202:	08e785a3          	sb	a4,139(a5)
    2206:	08079623          	sh	zero,140(a5)
    220a:	08e78723          	sb	a4,142(a5)
    220e:	08e787a3          	sb	a4,143(a5)
    2212:	40b2                	lw	ra,12(sp)
    2214:	0141                	addi	sp,sp,16
    2216:	8082                	ret

00002218 <USB20_Endp_Init>:
USB20_Endp_Init():
    2218:	400097b7          	lui	a5,0x40009
    221c:	fcc00713          	li	a4,-52
    2220:	00e78823          	sb	a4,16(a5) # 40009010 <_dmadata_end+0x1ffe5c10>
    2224:	00e788a3          	sb	a4,17(a5)
    2228:	00e78923          	sb	a4,18(a5)
    222c:	4731                	li	a4,12
    222e:	00e789a3          	sb	a4,19(a5)
    2232:	04000713          	li	a4,64
    2236:	04e79823          	sh	a4,80(a5)
    223a:	20000713          	li	a4,512
    223e:	04e79a23          	sh	a4,84(a5)
    2242:	200236b7          	lui	a3,0x20023
    2246:	04e79c23          	sh	a4,88(a5)
    224a:	20068693          	addi	a3,a3,512 # 20023200 <endp0RTbuff>
    224e:	cbd4                	sw	a3,20(a5)
    2250:	200226b7          	lui	a3,0x20022
    2254:	20068693          	addi	a3,a3,512 # 20022200 <endp1Tbuff>
    2258:	dbd4                	sw	a3,52(a5)
    225a:	200216b7          	lui	a3,0x20021
    225e:	20068693          	addi	a3,a3,512 # 20021200 <endp1Rbuff>
    2262:	cf94                	sw	a3,24(a5)
    2264:	200206b7          	lui	a3,0x20020
    2268:	20068693          	addi	a3,a3,512 # 20020200 <endp2RTbuff>
    226c:	df94                	sw	a3,56(a5)
    226e:	cfd4                	sw	a3,28(a5)
    2270:	06079823          	sh	zero,112(a5)
    2274:	06078923          	sb	zero,114(a5)
    2278:	060789a3          	sb	zero,115(a5)
    227c:	06e79a23          	sh	a4,116(a5)
    2280:	06078b23          	sb	zero,118(a5)
    2284:	06078ba3          	sb	zero,119(a5)
    2288:	06e79c23          	sh	a4,120(a5)
    228c:	06078d23          	sb	zero,122(a5)
    2290:	06078da3          	sb	zero,123(a5)
    2294:	06079e23          	sh	zero,124(a5)
    2298:	4709                	li	a4,2
    229a:	06e78f23          	sb	a4,126(a5)
    229e:	06e78fa3          	sb	a4,127(a5)
    22a2:	08079023          	sh	zero,128(a5)
    22a6:	08e78123          	sb	a4,130(a5)
    22aa:	08e781a3          	sb	a4,131(a5)
    22ae:	08079223          	sh	zero,132(a5)
    22b2:	08e78323          	sb	a4,134(a5)
    22b6:	08e783a3          	sb	a4,135(a5)
    22ba:	08079423          	sh	zero,136(a5)
    22be:	08e78523          	sb	a4,138(a5)
    22c2:	08e785a3          	sb	a4,139(a5)
    22c6:	08079623          	sh	zero,140(a5)
    22ca:	08e78723          	sb	a4,142(a5)
    22ce:	08e787a3          	sb	a4,143(a5)
    22d2:	8082                	ret

000022d4 <USB20_Device_Init>:
USB20_Device_Init():
    22d4:	400097b7          	lui	a5,0x40009
    22d8:	e509                	bnez	a0,22e2 <USB20_Device_Init+0xe>
    22da:	4719                	li	a4,6
    22dc:	00e78023          	sb	a4,0(a5) # 40009000 <_dmadata_end+0x1ffe5c00>
    22e0:	8082                	ret
    22e2:	00078023          	sb	zero,0(a5)
    22e6:	03900713          	li	a4,57
    22ea:	00e78023          	sb	a4,0(a5)
    22ee:	02700713          	li	a4,39
    22f2:	00e78123          	sb	a4,2(a5)
    22f6:	fcc00713          	li	a4,-52
    22fa:	00e78823          	sb	a4,16(a5)
    22fe:	00e788a3          	sb	a4,17(a5)
    2302:	00e78923          	sb	a4,18(a5)
    2306:	4731                	li	a4,12
    2308:	00e789a3          	sb	a4,19(a5)
    230c:	04000713          	li	a4,64
    2310:	04e79823          	sh	a4,80(a5)
    2314:	20000713          	li	a4,512
    2318:	04e79a23          	sh	a4,84(a5)
    231c:	200236b7          	lui	a3,0x20023
    2320:	04e79c23          	sh	a4,88(a5)
    2324:	20068693          	addi	a3,a3,512 # 20023200 <endp0RTbuff>
    2328:	cbd4                	sw	a3,20(a5)
    232a:	200226b7          	lui	a3,0x20022
    232e:	20068693          	addi	a3,a3,512 # 20022200 <endp1Tbuff>
    2332:	dbd4                	sw	a3,52(a5)
    2334:	200216b7          	lui	a3,0x20021
    2338:	20068693          	addi	a3,a3,512 # 20021200 <endp1Rbuff>
    233c:	cf94                	sw	a3,24(a5)
    233e:	200206b7          	lui	a3,0x20020
    2342:	20068693          	addi	a3,a3,512 # 20020200 <endp2RTbuff>
    2346:	df94                	sw	a3,56(a5)
    2348:	cfd4                	sw	a3,28(a5)
    234a:	06079823          	sh	zero,112(a5)
    234e:	06078923          	sb	zero,114(a5)
    2352:	060789a3          	sb	zero,115(a5)
    2356:	06e79a23          	sh	a4,116(a5)
    235a:	06078b23          	sb	zero,118(a5)
    235e:	06078ba3          	sb	zero,119(a5)
    2362:	06e79c23          	sh	a4,120(a5)
    2366:	06078d23          	sb	zero,122(a5)
    236a:	06078da3          	sb	zero,123(a5)
    236e:	4709                	li	a4,2
    2370:	06079e23          	sh	zero,124(a5)
    2374:	06e78f23          	sb	a4,126(a5)
    2378:	06e78fa3          	sb	a4,127(a5)
    237c:	08079023          	sh	zero,128(a5)
    2380:	08e78123          	sb	a4,130(a5)
    2384:	08e781a3          	sb	a4,131(a5)
    2388:	08079223          	sh	zero,132(a5)
    238c:	08e78323          	sb	a4,134(a5)
    2390:	08e783a3          	sb	a4,135(a5)
    2394:	08079423          	sh	zero,136(a5)
    2398:	08e78523          	sb	a4,138(a5)
    239c:	08e785a3          	sb	a4,139(a5)
    23a0:	08079623          	sh	zero,140(a5)
    23a4:	08e78723          	sb	a4,142(a5)
    23a8:	08e787a3          	sb	a4,143(a5)
    23ac:	8082                	ret

000023ae <U20_NonStandard_Request>:
U20_NonStandard_Request():
    23ae:	1101                	addi	sp,sp,-32
    23b0:	ca26                	sw	s1,20(sp)
    23b2:	86019d23          	sh	zero,-1926(gp) # 20000392 <SetupLen>
    23b6:	8701c783          	lbu	a5,-1936(gp) # 20000388 <SetupReq>
    23ba:	20023537          	lui	a0,0x20023
    23be:	ce06                	sw	ra,28(sp)
    23c0:	cc22                	sw	s0,24(sp)
    23c2:	c84a                	sw	s2,16(sp)
    23c4:	c64e                	sw	s3,12(sp)
    23c6:	20050713          	addi	a4,a0,512 # 20023200 <endp0RTbuff>
    23ca:	4605                	li	a2,1
    23cc:	00074583          	lbu	a1,0(a4) # 4040000 <_data_lma+0x403a760>
    23d0:	08c78463          	beq	a5,a2,2458 <U20_NonStandard_Request+0xaa>
    23d4:	0ff7f693          	zext.b	a3,a5
    23d8:	4789                	li	a5,2
    23da:	06f68563          	beq	a3,a5,2444 <U20_NonStandard_Request+0x96>
    23de:	57fd                	li	a5,-1
    23e0:	86f19d23          	sh	a5,-1926(gp) # 20000392 <SetupLen>
    23e4:	87a1d703          	lhu	a4,-1926(gp) # 20000392 <SetupLen>
    23e8:	67c1                	lui	a5,0x10
    23ea:	17fd                	addi	a5,a5,-1 # ffff <_data_lma+0xa75f>
    23ec:	4401                	li	s0,0
    23ee:	02f70f63          	beq	a4,a5,242c <U20_NonStandard_Request+0x7e>
    23f2:	87a1d783          	lhu	a5,-1926(gp) # 20000392 <SetupLen>
    23f6:	01079413          	slli	s0,a5,0x10
    23fa:	8041                	srli	s0,s0,0x10
    23fc:	cb85                	beqz	a5,242c <U20_NonStandard_Request+0x7e>
    23fe:	87a1d703          	lhu	a4,-1926(gp) # 20000392 <SetupLen>
    2402:	03f00793          	li	a5,63
    2406:	04000413          	li	s0,64
    240a:	00e7e663          	bltu	a5,a4,2416 <U20_NonStandard_Request+0x68>
    240e:	87a1d403          	lhu	s0,-1926(gp) # 20000392 <SetupLen>
    2412:	0442                	slli	s0,s0,0x10
    2414:	8041                	srli	s0,s0,0x10
    2416:	05e2                	slli	a1,a1,0x18
    2418:	85e1                	srai	a1,a1,0x18
    241a:	0c05cd63          	bltz	a1,24f4 <U20_NonStandard_Request+0x146>
    241e:	87a1d783          	lhu	a5,-1926(gp) # 20000392 <SetupLen>
    2422:	8f81                	sub	a5,a5,s0
    2424:	07c2                	slli	a5,a5,0x10
    2426:	83c1                	srli	a5,a5,0x10
    2428:	86f19d23          	sh	a5,-1926(gp) # 20000392 <SetupLen>
    242c:	40f2                	lw	ra,28(sp)
    242e:	8522                	mv	a0,s0
    2430:	4462                	lw	s0,24(sp)
    2432:	44d2                	lw	s1,20(sp)
    2434:	4942                	lw	s2,16(sp)
    2436:	49b2                	lw	s3,12(sp)
    2438:	6105                	addi	sp,sp,32
    243a:	8082                	ret
    243c:	0c000713          	li	a4,192
    2440:	fae782e3          	beq	a5,a4,23e4 <U20_NonStandard_Request+0x36>
    2444:	6441                	lui	s0,0x10
    2446:	147d                	addi	s0,s0,-1 # ffff <_data_lma+0xa75f>
    2448:	40f2                	lw	ra,28(sp)
    244a:	8522                	mv	a0,s0
    244c:	4462                	lw	s0,24(sp)
    244e:	44d2                	lw	s1,20(sp)
    2450:	4942                	lw	s2,16(sp)
    2452:	49b2                	lw	s3,12(sp)
    2454:	6105                	addi	sp,sp,32
    2456:	8082                	ret
    2458:	00474783          	lbu	a5,4(a4)
    245c:	4725                	li	a4,9
    245e:	fcf76fe3          	bltu	a4,a5,243c <U20_NonStandard_Request+0x8e>
    2462:	470d                	li	a4,3
    2464:	fef770e3          	bgeu	a4,a5,2444 <U20_NonStandard_Request+0x96>
    2468:	17ed                	addi	a5,a5,-5
    246a:	0ff7f793          	zext.b	a5,a5
    246e:	4711                	li	a4,4
    2470:	04f76f63          	bltu	a4,a5,24ce <U20_NonStandard_Request+0x120>
    2474:	6715                	lui	a4,0x5
    2476:	078a                	slli	a5,a5,0x2
    2478:	40870713          	addi	a4,a4,1032 # 5408 <stop_name+0x198>
    247c:	97ba                	add	a5,a5,a4
    247e:	439c                	lw	a5,0(a5)
    2480:	8782                	jr	a5
    2482:	87c1d683          	lhu	a3,-1924(gp) # 20000394 <SetupReqLen>
    2486:	08e00793          	li	a5,142
    248a:	00d7e663          	bltu	a5,a3,2496 <U20_NonStandard_Request+0xe8>
    248e:	87c1d783          	lhu	a5,-1924(gp) # 20000394 <SetupReqLen>
    2492:	07c2                	slli	a5,a5,0x10
    2494:	83c1                	srli	a5,a5,0x10
    2496:	86f19d23          	sh	a5,-1926(gp) # 20000392 <SetupLen>
    249a:	200007b7          	lui	a5,0x20000
    249e:	00078793          	mv	a5,a5
    24a2:	86f1a623          	sw	a5,-1940(gp) # 20000384 <pDescr>
    24a6:	bf3d                	j	23e4 <U20_NonStandard_Request+0x36>
    24a8:	87c1d683          	lhu	a3,-1924(gp) # 20000394 <SetupReqLen>
    24ac:	04800793          	li	a5,72
    24b0:	00d7e663          	bltu	a5,a3,24bc <U20_NonStandard_Request+0x10e>
    24b4:	87c1d783          	lhu	a5,-1924(gp) # 20000394 <SetupReqLen>
    24b8:	07c2                	slli	a5,a5,0x10
    24ba:	83c1                	srli	a5,a5,0x10
    24bc:	86f19d23          	sh	a5,-1926(gp) # 20000392 <SetupLen>
    24c0:	200007b7          	lui	a5,0x20000
    24c4:	0b878793          	addi	a5,a5,184 # 200000b8 <USB_MSOS20DescriptorSet>
    24c8:	86f1a623          	sw	a5,-1940(gp) # 20000384 <pDescr>
    24cc:	bf21                	j	23e4 <U20_NonStandard_Request+0x36>
    24ce:	87c1d683          	lhu	a3,-1924(gp) # 20000394 <SetupReqLen>
    24d2:	02800793          	li	a5,40
    24d6:	00d7e663          	bltu	a5,a3,24e2 <U20_NonStandard_Request+0x134>
    24da:	87c1d783          	lhu	a5,-1924(gp) # 20000394 <SetupReqLen>
    24de:	07c2                	slli	a5,a5,0x10
    24e0:	83c1                	srli	a5,a5,0x10
    24e2:	86f19d23          	sh	a5,-1926(gp) # 20000392 <SetupLen>
    24e6:	200007b7          	lui	a5,0x20000
    24ea:	09078793          	addi	a5,a5,144 # 20000090 <USB_CompatId>
    24ee:	86f1a623          	sw	a5,-1940(gp) # 20000384 <pDescr>
    24f2:	bdcd                	j	23e4 <U20_NonStandard_Request+0x36>
    24f4:	86c1a903          	lw	s2,-1940(gp) # 20000384 <pDescr>
    24f8:	8622                	mv	a2,s0
    24fa:	20050513          	addi	a0,a0,512
    24fe:	85ca                	mv	a1,s2
    2500:	9922                	add	s2,s2,s0
    2502:	bbffd0ef          	jal	ra,c0 <memcpy>
    2506:	8721a623          	sw	s2,-1940(gp) # 20000384 <pDescr>
    250a:	bf11                	j	241e <U20_NonStandard_Request+0x70>

0000250c <U20_Standard_Request>:
U20_Standard_Request():
    250c:	1101                	addi	sp,sp,-32
    250e:	cc22                	sw	s0,24(sp)
    2510:	86019d23          	sh	zero,-1926(gp) # 20000392 <SetupLen>
    2514:	8701c703          	lbu	a4,-1936(gp) # 20000388 <SetupReq>
    2518:	20023537          	lui	a0,0x20023
    251c:	ce06                	sw	ra,28(sp)
    251e:	ca26                	sw	s1,20(sp)
    2520:	c84a                	sw	s2,16(sp)
    2522:	c64e                	sw	s3,12(sp)
    2524:	20050693          	addi	a3,a0,512 # 20023200 <endp0RTbuff>
    2528:	45ad                	li	a1,11
    252a:	0006c603          	lbu	a2,0(a3)
    252e:	02e5e463          	bltu	a1,a4,2556 <U20_Standard_Request+0x4a>
    2532:	0ff77793          	zext.b	a5,a4
    2536:	6715                	lui	a4,0x5
    2538:	078a                	slli	a5,a5,0x2
    253a:	41c70713          	addi	a4,a4,1052 # 541c <stop_name+0x1ac>
    253e:	97ba                	add	a5,a5,a4
    2540:	439c                	lw	a5,0(a5)
    2542:	8782                	jr	a5
    2544:	01f67793          	andi	a5,a2,31
    2548:	1a079363          	bnez	a5,26ee <U20_Standard_Request+0x1e2>
    254c:	0026d783          	lhu	a5,2(a3)
    2550:	4705                	li	a4,1
    2552:	1ee78863          	beq	a5,a4,2742 <U20_Standard_Request+0x236>
    2556:	57fd                	li	a5,-1
    2558:	86f19d23          	sh	a5,-1926(gp) # 20000392 <SetupLen>
    255c:	87a1d703          	lhu	a4,-1926(gp) # 20000392 <SetupLen>
    2560:	67c1                	lui	a5,0x10
    2562:	17fd                	addi	a5,a5,-1 # ffff <_data_lma+0xa75f>
    2564:	4481                	li	s1,0
    2566:	02f70b63          	beq	a4,a5,259c <U20_Standard_Request+0x90>
    256a:	87a1d783          	lhu	a5,-1926(gp) # 20000392 <SetupLen>
    256e:	01079493          	slli	s1,a5,0x10
    2572:	80c1                	srli	s1,s1,0x10
    2574:	c785                	beqz	a5,259c <U20_Standard_Request+0x90>
    2576:	87a1d703          	lhu	a4,-1926(gp) # 20000392 <SetupLen>
    257a:	03f00793          	li	a5,63
    257e:	04000493          	li	s1,64
    2582:	02e7f563          	bgeu	a5,a4,25ac <U20_Standard_Request+0xa0>
    2586:	0662                	slli	a2,a2,0x18
    2588:	8661                	srai	a2,a2,0x18
    258a:	12064a63          	bltz	a2,26be <U20_Standard_Request+0x1b2>
    258e:	87a1d783          	lhu	a5,-1926(gp) # 20000392 <SetupLen>
    2592:	8f85                	sub	a5,a5,s1
    2594:	07c2                	slli	a5,a5,0x10
    2596:	83c1                	srli	a5,a5,0x10
    2598:	86f19d23          	sh	a5,-1926(gp) # 20000392 <SetupLen>
    259c:	40f2                	lw	ra,28(sp)
    259e:	4462                	lw	s0,24(sp)
    25a0:	4942                	lw	s2,16(sp)
    25a2:	49b2                	lw	s3,12(sp)
    25a4:	8526                	mv	a0,s1
    25a6:	44d2                	lw	s1,20(sp)
    25a8:	6105                	addi	sp,sp,32
    25aa:	8082                	ret
    25ac:	87a1d483          	lhu	s1,-1926(gp) # 20000392 <SetupLen>
    25b0:	04c2                	slli	s1,s1,0x10
    25b2:	80c1                	srli	s1,s1,0x10
    25b4:	bfc9                	j	2586 <U20_Standard_Request+0x7a>
    25b6:	0026c703          	lbu	a4,2(a3)
    25ba:	86e18aa3          	sb	a4,-1931(gp) # 2000038d <g_devInfo+0x1>
    25be:	bf79                	j	255c <U20_Standard_Request+0x50>
    25c0:	0036c783          	lbu	a5,3(a3)
    25c4:	470d                	li	a4,3
    25c6:	1ee78463          	beq	a5,a4,27ae <U20_Standard_Request+0x2a2>
    25ca:	0cf76b63          	bltu	a4,a5,26a0 <U20_Standard_Request+0x194>
    25ce:	4705                	li	a4,1
    25d0:	20e78363          	beq	a5,a4,27d6 <U20_Standard_Request+0x2ca>
    25d4:	4709                	li	a4,2
    25d6:	f8e790e3          	bne	a5,a4,2556 <U20_Standard_Request+0x4a>
    25da:	200007b7          	lui	a5,0x20000
    25de:	87c1d683          	lhu	a3,-1924(gp) # 20000394 <SetupReqLen>
    25e2:	20478793          	addi	a5,a5,516 # 20000204 <USB_HS_ConfigDescriptor>
    25e6:	86f1a623          	sw	a5,-1940(gp) # 20000384 <pDescr>
    25ea:	04b00793          	li	a5,75
    25ee:	f6d7e5e3          	bltu	a5,a3,2558 <U20_Standard_Request+0x4c>
    25f2:	87c1d783          	lhu	a5,-1924(gp) # 20000394 <SetupReqLen>
    25f6:	07c2                	slli	a5,a5,0x10
    25f8:	83c1                	srli	a5,a5,0x10
    25fa:	bfb9                	j	2558 <U20_Standard_Request+0x4c>
    25fc:	8761c783          	lbu	a5,-1930(gp) # 2000038e <g_devInfo+0x2>
    2600:	4705                	li	a4,1
    2602:	86e19d23          	sh	a4,-1926(gp) # 20000392 <SetupLen>
    2606:	00f68023          	sb	a5,0(a3)
    260a:	bf89                	j	255c <U20_Standard_Request+0x50>
    260c:	40009737          	lui	a4,0x40009
    2610:	00874783          	lbu	a5,8(a4) # 40009008 <_dmadata_end+0x1ffe5c08>
    2614:	8b8d                	andi	a5,a5,3
    2616:	e3e1                	bnez	a5,26d6 <U20_Standard_Request+0x1ca>
    2618:	200007b7          	lui	a5,0x20000
    261c:	04000713          	li	a4,64
    2620:	30e79c23          	sh	a4,792(a5) # 20000318 <U20_EndpnMaxSize>
    2624:	0026c703          	lbu	a4,2(a3)
    2628:	87418793          	addi	a5,gp,-1932 # 2000038c <g_devInfo>
    262c:	00e78123          	sb	a4,2(a5)
    2630:	4705                	li	a4,1
    2632:	00e78223          	sb	a4,4(a5)
    2636:	b71d                	j	255c <U20_Standard_Request+0x50>
    2638:	01f67793          	andi	a5,a2,31
    263c:	4709                	li	a4,2
    263e:	10e78d63          	beq	a5,a4,2758 <U20_Standard_Request+0x24c>
    2642:	fb91                	bnez	a5,2556 <U20_Standard_Request+0x4a>
    2644:	0026c703          	lbu	a4,2(a3)
    2648:	4785                	li	a5,1
    264a:	f0f719e3          	bne	a4,a5,255c <U20_Standard_Request+0x50>
    264e:	87418793          	addi	a5,gp,-1932 # 2000038c <g_devInfo>
    2652:	0037c703          	lbu	a4,3(a5)
    2656:	9b79                	andi	a4,a4,-2
    2658:	00e781a3          	sb	a4,3(a5)
    265c:	b701                	j	255c <U20_Standard_Request+0x50>
    265e:	0046d783          	lhu	a5,4(a3)
    2662:	4709                	li	a4,2
    2664:	20051023          	sh	zero,512(a0)
    2668:	86e19d23          	sh	a4,-1926(gp) # 20000392 <SetupLen>
    266c:	08100593          	li	a1,129
    2670:	10b78663          	beq	a5,a1,277c <U20_Standard_Request+0x270>
    2674:	4585                	li	a1,1
    2676:	0ab78963          	beq	a5,a1,2728 <U20_Standard_Request+0x21c>
    267a:	08200813          	li	a6,130
    267e:	19078a63          	beq	a5,a6,2812 <U20_Standard_Request+0x306>
    2682:	ece79de3          	bne	a5,a4,255c <U20_Standard_Request+0x50>
    2686:	400097b7          	lui	a5,0x40009
    268a:	07b7c783          	lbu	a5,123(a5) # 4000907b <_dmadata_end+0x1ffe5c7b>
    268e:	470d                	li	a4,3
    2690:	8b8d                	andi	a5,a5,3
    2692:	ece795e3          	bne	a5,a4,255c <U20_Standard_Request+0x50>
    2696:	00b68023          	sb	a1,0(a3)
    269a:	86b19d23          	sh	a1,-1926(gp) # 20000392 <SetupLen>
    269e:	bd7d                	j	255c <U20_Standard_Request+0x50>
    26a0:	473d                	li	a4,15
    26a2:	eae79ae3          	bne	a5,a4,2556 <U20_Standard_Request+0x4a>
    26a6:	200007b7          	lui	a5,0x20000
    26aa:	87c1d683          	lhu	a3,-1924(gp) # 20000394 <SetupReqLen>
    26ae:	10078793          	addi	a5,a5,256 # 20000100 <USB_BOSDescriptor>
    26b2:	86f1a623          	sw	a5,-1940(gp) # 20000384 <pDescr>
    26b6:	47d9                	li	a5,22
    26b8:	ead7e0e3          	bltu	a5,a3,2558 <U20_Standard_Request+0x4c>
    26bc:	bf1d                	j	25f2 <U20_Standard_Request+0xe6>
    26be:	86c1a903          	lw	s2,-1940(gp) # 20000384 <pDescr>
    26c2:	8626                	mv	a2,s1
    26c4:	20050513          	addi	a0,a0,512
    26c8:	85ca                	mv	a1,s2
    26ca:	9926                	add	s2,s2,s1
    26cc:	9f5fd0ef          	jal	ra,c0 <memcpy>
    26d0:	8721a623          	sw	s2,-1940(gp) # 20000384 <pDescr>
    26d4:	bd6d                	j	258e <U20_Standard_Request+0x82>
    26d6:	00874783          	lbu	a5,8(a4)
    26da:	4709                	li	a4,2
    26dc:	8b8d                	andi	a5,a5,3
    26de:	f4e793e3          	bne	a5,a4,2624 <U20_Standard_Request+0x118>
    26e2:	200007b7          	lui	a5,0x20000
    26e6:	4721                	li	a4,8
    26e8:	30e79c23          	sh	a4,792(a5) # 20000318 <U20_EndpnMaxSize>
    26ec:	bf25                	j	2624 <U20_Standard_Request+0x118>
    26ee:	4709                	li	a4,2
    26f0:	e6e793e3          	bne	a5,a4,2556 <U20_Standard_Request+0x4a>
    26f4:	0026d703          	lhu	a4,2(a3)
    26f8:	e4071fe3          	bnez	a4,2556 <U20_Standard_Request+0x4a>
    26fc:	0046c703          	lbu	a4,4(a3)
    2700:	08100693          	li	a3,129
    2704:	18d70e63          	beq	a4,a3,28a0 <U20_Standard_Request+0x394>
    2708:	10e6ee63          	bltu	a3,a4,2824 <U20_Standard_Request+0x318>
    270c:	4685                	li	a3,1
    270e:	1ad70263          	beq	a4,a3,28b2 <U20_Standard_Request+0x3a6>
    2712:	e4f712e3          	bne	a4,a5,2556 <U20_Standard_Request+0x4a>
    2716:	40009737          	lui	a4,0x40009
    271a:	07b74783          	lbu	a5,123(a4) # 4000907b <_dmadata_end+0x1ffe5c7b>
    271e:	0037e793          	ori	a5,a5,3
    2722:	06f70da3          	sb	a5,123(a4)
    2726:	bd1d                	j	255c <U20_Standard_Request+0x50>
    2728:	40009737          	lui	a4,0x40009
    272c:	07774703          	lbu	a4,119(a4) # 40009077 <_dmadata_end+0x1ffe5c77>
    2730:	458d                	li	a1,3
    2732:	8b0d                	andi	a4,a4,3
    2734:	e2b714e3          	bne	a4,a1,255c <U20_Standard_Request+0x50>
    2738:	00f68023          	sb	a5,0(a3)
    273c:	86f19d23          	sh	a5,-1926(gp) # 20000392 <SetupLen>
    2740:	bd31                	j	255c <U20_Standard_Request+0x50>
    2742:	20000737          	lui	a4,0x20000
    2746:	20b74703          	lbu	a4,523(a4) # 2000020b <USB_HS_ConfigDescriptor+0x7>
    274a:	02077713          	andi	a4,a4,32
    274e:	e00704e3          	beqz	a4,2556 <U20_Standard_Request+0x4a>
    2752:	86f18ba3          	sb	a5,-1929(gp) # 2000038f <g_devInfo+0x3>
    2756:	b519                	j	255c <U20_Standard_Request+0x50>
    2758:	0026c703          	lbu	a4,2(a3)
    275c:	08100693          	li	a3,129
    2760:	0cd70f63          	beq	a4,a3,283e <U20_Standard_Request+0x332>
    2764:	02e6ea63          	bltu	a3,a4,2798 <U20_Standard_Request+0x28c>
    2768:	4685                	li	a3,1
    276a:	0ed70163          	beq	a4,a3,284c <U20_Standard_Request+0x340>
    276e:	def714e3          	bne	a4,a5,2556 <U20_Standard_Request+0x4a>
    2772:	400097b7          	lui	a5,0x40009
    2776:	06078d23          	sb	zero,122(a5) # 4000907a <_dmadata_end+0x1ffe5c7a>
    277a:	b3cd                	j	255c <U20_Standard_Request+0x50>
    277c:	400097b7          	lui	a5,0x40009
    2780:	0767c783          	lbu	a5,118(a5) # 40009076 <_dmadata_end+0x1ffe5c76>
    2784:	470d                	li	a4,3
    2786:	8b8d                	andi	a5,a5,3
    2788:	dce79ae3          	bne	a5,a4,255c <U20_Standard_Request+0x50>
    278c:	4785                	li	a5,1
    278e:	00f68023          	sb	a5,0(a3)
    2792:	86f19d23          	sh	a5,-1926(gp) # 20000392 <SetupLen>
    2796:	b3d9                	j	255c <U20_Standard_Request+0x50>
    2798:	08200693          	li	a3,130
    279c:	dad71de3          	bne	a4,a3,2556 <U20_Standard_Request+0x4a>
    27a0:	40009737          	lui	a4,0x40009
    27a4:	06071c23          	sh	zero,120(a4) # 40009078 <_dmadata_end+0x1ffe5c78>
    27a8:	06f70d23          	sb	a5,122(a4)
    27ac:	bb45                	j	255c <U20_Standard_Request+0x50>
    27ae:	0026c703          	lbu	a4,2(a3)
    27b2:	4689                	li	a3,2
    27b4:	0ad70163          	beq	a4,a3,2856 <U20_Standard_Request+0x34a>
    27b8:	02e6eb63          	bltu	a3,a4,27ee <U20_Standard_Request+0x2e2>
    27bc:	c771                	beqz	a4,2888 <U20_Standard_Request+0x37c>
    27be:	200007b7          	lui	a5,0x20000
    27c2:	87c1d683          	lhu	a3,-1924(gp) # 20000394 <SetupReqLen>
    27c6:	19078793          	addi	a5,a5,400 # 20000190 <USB_StringVendor>
    27ca:	86f1a623          	sw	a5,-1940(gp) # 20000384 <pDescr>
    27ce:	47c9                	li	a5,18
    27d0:	d8d7e4e3          	bltu	a5,a3,2558 <U20_Standard_Request+0x4c>
    27d4:	bd39                	j	25f2 <U20_Standard_Request+0xe6>
    27d6:	200007b7          	lui	a5,0x20000
    27da:	87c1d683          	lhu	a3,-1924(gp) # 20000394 <SetupReqLen>
    27de:	26478793          	addi	a5,a5,612 # 20000264 <USB_HS_DeviceDescriptor>
    27e2:	86f1a623          	sw	a5,-1940(gp) # 20000384 <pDescr>
    27e6:	47c9                	li	a5,18
    27e8:	d6d7e8e3          	bltu	a5,a3,2558 <U20_Standard_Request+0x4c>
    27ec:	b519                	j	25f2 <U20_Standard_Request+0xe6>
    27ee:	08f70063          	beq	a4,a5,286e <U20_Standard_Request+0x362>
    27f2:	0ee00793          	li	a5,238
    27f6:	d6f710e3          	bne	a4,a5,2556 <U20_Standard_Request+0x4a>
    27fa:	200007b7          	lui	a5,0x20000
    27fe:	87c1d683          	lhu	a3,-1924(gp) # 20000394 <SetupReqLen>
    2802:	11878793          	addi	a5,a5,280 # 20000118 <USB_OSStringDescriptor>
    2806:	86f1a623          	sw	a5,-1940(gp) # 20000384 <pDescr>
    280a:	47c9                	li	a5,18
    280c:	d4d7e6e3          	bltu	a5,a3,2558 <U20_Standard_Request+0x4c>
    2810:	b3cd                	j	25f2 <U20_Standard_Request+0xe6>
    2812:	400097b7          	lui	a5,0x40009
    2816:	07a7c783          	lbu	a5,122(a5) # 4000907a <_dmadata_end+0x1ffe5c7a>
    281a:	470d                	li	a4,3
    281c:	8b8d                	andi	a5,a5,3
    281e:	d2e79fe3          	bne	a5,a4,255c <U20_Standard_Request+0x50>
    2822:	bd95                	j	2696 <U20_Standard_Request+0x18a>
    2824:	08200793          	li	a5,130
    2828:	d2f717e3          	bne	a4,a5,2556 <U20_Standard_Request+0x4a>
    282c:	40009737          	lui	a4,0x40009
    2830:	07a74783          	lbu	a5,122(a4) # 4000907a <_dmadata_end+0x1ffe5c7a>
    2834:	0037e793          	ori	a5,a5,3
    2838:	06f70d23          	sb	a5,122(a4)
    283c:	b305                	j	255c <U20_Standard_Request+0x50>
    283e:	40009737          	lui	a4,0x40009
    2842:	06071a23          	sh	zero,116(a4) # 40009074 <_dmadata_end+0x1ffe5c74>
    2846:	06f70b23          	sb	a5,118(a4)
    284a:	bb09                	j	255c <U20_Standard_Request+0x50>
    284c:	400097b7          	lui	a5,0x40009
    2850:	06078ba3          	sb	zero,119(a5) # 40009077 <_dmadata_end+0x1ffe5c77>
    2854:	b321                	j	255c <U20_Standard_Request+0x50>
    2856:	200007b7          	lui	a5,0x20000
    285a:	87c1d683          	lhu	a3,-1924(gp) # 20000394 <SetupReqLen>
    285e:	17c78793          	addi	a5,a5,380 # 2000017c <USB_HS_StringProduct>
    2862:	86f1a623          	sw	a5,-1940(gp) # 20000384 <pDescr>
    2866:	47d1                	li	a5,20
    2868:	ced7e8e3          	bltu	a5,a3,2558 <U20_Standard_Request+0x4c>
    286c:	b359                	j	25f2 <U20_Standard_Request+0xe6>
    286e:	200007b7          	lui	a5,0x20000
    2872:	87c1d683          	lhu	a3,-1924(gp) # 20000394 <SetupReqLen>
    2876:	12c78793          	addi	a5,a5,300 # 2000012c <USB_StringSerial>
    287a:	86f1a623          	sw	a5,-1940(gp) # 20000384 <pDescr>
    287e:	03c00793          	li	a5,60
    2882:	ccd7ebe3          	bltu	a5,a3,2558 <U20_Standard_Request+0x4c>
    2886:	b3b5                	j	25f2 <U20_Standard_Request+0xe6>
    2888:	200007b7          	lui	a5,0x20000
    288c:	87c1d683          	lhu	a3,-1924(gp) # 20000394 <SetupReqLen>
    2890:	31c78793          	addi	a5,a5,796 # 2000031c <USB_StringLangID>
    2894:	86f1a623          	sw	a5,-1940(gp) # 20000384 <pDescr>
    2898:	4791                	li	a5,4
    289a:	cad7efe3          	bltu	a5,a3,2558 <U20_Standard_Request+0x4c>
    289e:	bb91                	j	25f2 <U20_Standard_Request+0xe6>
    28a0:	40009737          	lui	a4,0x40009
    28a4:	07674783          	lbu	a5,118(a4) # 40009076 <_dmadata_end+0x1ffe5c76>
    28a8:	0037e793          	ori	a5,a5,3
    28ac:	06f70b23          	sb	a5,118(a4)
    28b0:	b175                	j	255c <U20_Standard_Request+0x50>
    28b2:	40009737          	lui	a4,0x40009
    28b6:	07774783          	lbu	a5,119(a4) # 40009077 <_dmadata_end+0x1ffe5c77>
    28ba:	0037e793          	ori	a5,a5,3
    28be:	06f70ba3          	sb	a5,119(a4)
    28c2:	b969                	j	255c <U20_Standard_Request+0x50>

000028c4 <USBHS_IRQHandler>:
USBHS_IRQHandler():
    28c4:	1141                	addi	sp,sp,-16
    28c6:	c622                	sw	s0,12(sp)
    28c8:	c426                	sw	s1,8(sp)
    28ca:	c24a                	sw	s2,4(sp)
    28cc:	c04e                	sw	s3,0(sp)
    28ce:	40009437          	lui	s0,0x40009
    28d2:	00a44783          	lbu	a5,10(s0) # 4000900a <_dmadata_end+0x1ffe5c0a>
    28d6:	0207f713          	andi	a4,a5,32
    28da:	cf39                	beqz	a4,2938 <USBHS_IRQHandler+0x74>
    28dc:	200237b7          	lui	a5,0x20023
    28e0:	20078793          	addi	a5,a5,512 # 20023200 <endp0RTbuff>
    28e4:	0007c703          	lbu	a4,0(a5)
    28e8:	0017c603          	lbu	a2,1(a5)
    28ec:	0067d683          	lhu	a3,6(a5)
    28f0:	86e188a3          	sb	a4,-1935(gp) # 20000389 <SetupReqType>
    28f4:	86c18823          	sb	a2,-1936(gp) # 20000388 <SetupReq>
    28f8:	86d19e23          	sh	a3,-1924(gp) # 20000394 <SetupReqLen>
    28fc:	06077713          	andi	a4,a4,96
    2900:	e741                	bnez	a4,2988 <USBHS_IRQHandler+0xc4>
    2902:	3129                	jal	250c <U20_Standard_Request>
    2904:	67c1                	lui	a5,0x10
    2906:	17fd                	addi	a5,a5,-1 # ffff <_data_lma+0xa75f>
    2908:	08f50663          	beq	a0,a5,2994 <USBHS_IRQHandler+0xd0>
    290c:	400097b7          	lui	a5,0x40009
    2910:	06a79823          	sh	a0,112(a5) # 40009070 <_dmadata_end+0x1ffe5c70>
    2914:	4721                	li	a4,8
    2916:	06e78923          	sb	a4,114(a5)
    291a:	06e789a3          	sb	a4,115(a5)
    291e:	400097b7          	lui	a5,0x40009
    2922:	02000713          	li	a4,32
    2926:	00e78523          	sb	a4,10(a5) # 4000900a <_dmadata_end+0x1ffe5c0a>
    292a:	4432                	lw	s0,12(sp)
    292c:	44a2                	lw	s1,8(sp)
    292e:	4912                	lw	s2,4(sp)
    2930:	4982                	lw	s3,0(sp)
    2932:	0141                	addi	sp,sp,16
    2934:	30200073          	mret
    2938:	0ff7f793          	zext.b	a5,a5
    293c:	0027f713          	andi	a4,a5,2
    2940:	cb1d                	beqz	a4,2976 <USBHS_IRQHandler+0xb2>
    2942:	00b44703          	lbu	a4,11(s0)
    2946:	00b44783          	lbu	a5,11(s0)
    294a:	4685                	li	a3,1
    294c:	8b3d                	andi	a4,a4,15
    294e:	8391                	srli	a5,a5,0x4
    2950:	8b8d                	andi	a5,a5,3
    2952:	12d70563          	beq	a4,a3,2a7c <USBHS_IRQHandler+0x1b8>
    2956:	4689                	li	a3,2
    2958:	08d70f63          	beq	a4,a3,29f6 <USBHS_IRQHandler+0x132>
    295c:	c731                	beqz	a4,29a8 <USBHS_IRQHandler+0xe4>
    295e:	400097b7          	lui	a5,0x40009
    2962:	4709                	li	a4,2
    2964:	00e78523          	sb	a4,10(a5) # 4000900a <_dmadata_end+0x1ffe5c0a>
    2968:	4432                	lw	s0,12(sp)
    296a:	44a2                	lw	s1,8(sp)
    296c:	4912                	lw	s2,4(sp)
    296e:	4982                	lw	s3,0(sp)
    2970:	0141                	addi	sp,sp,16
    2972:	30200073          	mret
    2976:	0017f713          	andi	a4,a5,1
    297a:	e35d                	bnez	a4,2a20 <USBHS_IRQHandler+0x15c>
    297c:	8b91                	andi	a5,a5,4
    297e:	d7d5                	beqz	a5,292a <USBHS_IRQHandler+0x66>
    2980:	4791                	li	a5,4
    2982:	00f40523          	sb	a5,10(s0)
    2986:	b755                	j	292a <USBHS_IRQHandler+0x66>
    2988:	a27ff0ef          	jal	ra,23ae <U20_NonStandard_Request>
    298c:	67c1                	lui	a5,0x10
    298e:	17fd                	addi	a5,a5,-1 # ffff <_data_lma+0xa75f>
    2990:	f6f51ee3          	bne	a0,a5,290c <USBHS_IRQHandler+0x48>
    2994:	400097b7          	lui	a5,0x40009
    2998:	06079823          	sh	zero,112(a5) # 40009070 <_dmadata_end+0x1ffe5c70>
    299c:	470d                	li	a4,3
    299e:	06e78923          	sb	a4,114(a5)
    29a2:	06e789a3          	sb	a4,115(a5)
    29a6:	bfa5                	j	291e <USBHS_IRQHandler+0x5a>
    29a8:	1ad78563          	beq	a5,a3,2b52 <USBHS_IRQHandler+0x28e>
    29ac:	fbcd                	bnez	a5,295e <USBHS_IRQHandler+0x9a>
    29ae:	00c45683          	lhu	a3,12(s0)
    29b2:	87a1d783          	lhu	a5,-1926(gp) # 20000392 <SetupLen>
    29b6:	22f6f263          	bgeu	a3,a5,2bda <USBHS_IRQHandler+0x316>
    29ba:	00c45683          	lhu	a3,12(s0)
    29be:	06c2                	slli	a3,a3,0x10
    29c0:	82c1                	srli	a3,a3,0x10
    29c2:	87a1d783          	lhu	a5,-1926(gp) # 20000392 <SetupLen>
    29c6:	8f95                	sub	a5,a5,a3
    29c8:	07c2                	slli	a5,a5,0x10
    29ca:	83c1                	srli	a5,a5,0x10
    29cc:	86f19d23          	sh	a5,-1926(gp) # 20000392 <SetupLen>
    29d0:	87a1d783          	lhu	a5,-1926(gp) # 20000392 <SetupLen>
    29d4:	1e078963          	beqz	a5,2bc6 <USBHS_IRQHandler+0x302>
    29d8:	400097b7          	lui	a5,0x40009
    29dc:	0737c703          	lbu	a4,115(a5) # 40009073 <_dmadata_end+0x1ffe5c73>
    29e0:	00874713          	xori	a4,a4,8
    29e4:	06e789a3          	sb	a4,115(a5)
    29e8:	0737c703          	lbu	a4,115(a5)
    29ec:	0fc77713          	andi	a4,a4,252
    29f0:	06e789a3          	sb	a4,115(a5)
    29f4:	b7ad                	j	295e <USBHS_IRQHandler+0x9a>
    29f6:	0ee78e63          	beq	a5,a4,2af2 <USBHS_IRQHandler+0x22e>
    29fa:	f3b5                	bnez	a5,295e <USBHS_IRQHandler+0x9a>
    29fc:	200207b7          	lui	a5,0x20020
    2a00:	20078793          	addi	a5,a5,512 # 20020200 <endp2RTbuff>
    2a04:	cc5c                	sw	a5,28(s0)
    2a06:	07b44783          	lbu	a5,123(s0)
    2a0a:	0087c793          	xori	a5,a5,8
    2a0e:	06f40da3          	sb	a5,123(s0)
    2a12:	07b44783          	lbu	a5,123(s0)
    2a16:	0fc7f793          	andi	a5,a5,252
    2a1a:	06f40da3          	sb	a5,123(s0)
    2a1e:	b781                	j	295e <USBHS_IRQHandler+0x9a>
    2a20:	4709                	li	a4,2
    2a22:	84e186a3          	sb	a4,-1971(gp) # 20000365 <g_DeviceConnectstatus>
    2a26:	84018623          	sb	zero,-1972(gp) # 20000364 <g_DeviceUsbType>
    2a2a:	feeff0ef          	jal	ra,2218 <USB20_Endp_Init>
    2a2e:	4785                	li	a5,1
    2a30:	000401a3          	sb	zero,3(s0)
    2a34:	00f40523          	sb	a5,10(s0)
    2a38:	85c1c703          	lbu	a4,-1956(gp) # 20000374 <link_sta>
    2a3c:	0ff77693          	zext.b	a3,a4
    2a40:	eef715e3          	bne	a4,a5,292a <USBHS_IRQHandler+0x66>
    2a44:	e000e7b7          	lui	a5,0xe000e
    2a48:	00100737          	lui	a4,0x100
    2a4c:	10e7a023          	sw	a4,256(a5) # e000e100 <_dmadata_end+0xbffead00>
    2a50:	00200737          	lui	a4,0x200
    2a54:	10e7a023          	sw	a4,256(a5)
    2a58:	00020737          	lui	a4,0x20
    2a5c:	10e7a023          	sw	a4,256(a5)
    2a60:	03fe5537          	lui	a0,0x3fe5
    2a64:	400027b7          	lui	a5,0x40002
    2a68:	6c050513          	addi	a0,a0,1728 # 3fe56c0 <_data_lma+0x3fdfe20>
    2a6c:	00d78123          	sb	a3,2(a5) # 40002002 <_dmadata_end+0x1ffdec02>
    2a70:	b93fd0ef          	jal	ra,602 <TMR0_TimerInit>
    2a74:	4505                	li	a0,1
    2a76:	a19fe0ef          	jal	ra,148e <USB30D_init>
    2a7a:	bd45                	j	292a <USBHS_IRQHandler+0x66>
    2a7c:	4709                	li	a4,2
    2a7e:	08e78c63          	beq	a5,a4,2b16 <USBHS_IRQHandler+0x252>
    2a82:	ec079ee3          	bnez	a5,295e <USBHS_IRQHandler+0x9a>
    2a86:	8601a783          	lw	a5,-1952(gp) # 20000378 <EP1_OUT_seq_num>
    2a8a:	ef89                	bnez	a5,2aa4 <USBHS_IRQHandler+0x1e0>
    2a8c:	200227b7          	lui	a5,0x20022
    2a90:	20078793          	addi	a5,a5,512 # 20022200 <endp1Tbuff>
    2a94:	86f1a423          	sw	a5,-1944(gp) # 20000380 <pUEP1_TX_data>
    2a98:	200217b7          	lui	a5,0x20021
    2a9c:	20078793          	addi	a5,a5,512 # 20021200 <endp1Rbuff>
    2aa0:	86f1a223          	sw	a5,-1948(gp) # 2000037c <pUEP1_RX_data>
    2aa4:	8601a703          	lw	a4,-1952(gp) # 20000378 <EP1_OUT_seq_num>
    2aa8:	4799                	li	a5,6
    2aaa:	00e7eb63          	bltu	a5,a4,2ac0 <USBHS_IRQHandler+0x1fc>
    2aae:	8641a783          	lw	a5,-1948(gp) # 2000037c <pUEP1_RX_data>
    2ab2:	20078793          	addi	a5,a5,512
    2ab6:	86f1a223          	sw	a5,-1948(gp) # 2000037c <pUEP1_RX_data>
    2aba:	40009737          	lui	a4,0x40009
    2abe:	cf1c                	sw	a5,24(a4)
    2ac0:	8601a783          	lw	a5,-1952(gp) # 20000378 <EP1_OUT_seq_num>
    2ac4:	4721                	li	a4,8
    2ac6:	0785                	addi	a5,a5,1
    2ac8:	86f1a023          	sw	a5,-1952(gp) # 20000378 <EP1_OUT_seq_num>
    2acc:	8601a783          	lw	a5,-1952(gp) # 20000378 <EP1_OUT_seq_num>
    2ad0:	12e78d63          	beq	a5,a4,2c0a <USBHS_IRQHandler+0x346>
    2ad4:	400097b7          	lui	a5,0x40009
    2ad8:	0777c703          	lbu	a4,119(a5) # 40009077 <_dmadata_end+0x1ffe5c77>
    2adc:	00874713          	xori	a4,a4,8
    2ae0:	06e78ba3          	sb	a4,119(a5)
    2ae4:	0777c703          	lbu	a4,119(a5)
    2ae8:	0fc77713          	andi	a4,a4,252
    2aec:	06e78ba3          	sb	a4,119(a5)
    2af0:	b5bd                	j	295e <USBHS_IRQHandler+0x9a>
    2af2:	200207b7          	lui	a5,0x20020
    2af6:	20078793          	addi	a5,a5,512 # 20020200 <endp2RTbuff>
    2afa:	dc1c                	sw	a5,56(s0)
    2afc:	07a44783          	lbu	a5,122(s0)
    2b00:	0087c793          	xori	a5,a5,8
    2b04:	06f40d23          	sb	a5,122(s0)
    2b08:	07a44783          	lbu	a5,122(s0)
    2b0c:	0fc7f793          	andi	a5,a5,252
    2b10:	06f40d23          	sb	a5,122(s0)
    2b14:	b5a9                	j	295e <USBHS_IRQHandler+0x9a>
    2b16:	8681a583          	lw	a1,-1944(gp) # 20000380 <pUEP1_TX_data>
    2b1a:	20022537          	lui	a0,0x20022
    2b1e:	20050493          	addi	s1,a0,512 # 20022200 <endp1Tbuff>
    2b22:	20058593          	addi	a1,a1,512 # 3e00200 <_data_lma+0x3dfa960>
    2b26:	20000613          	li	a2,512
    2b2a:	20050513          	addi	a0,a0,512
    2b2e:	86b1a423          	sw	a1,-1944(gp) # 20000380 <pUEP1_TX_data>
    2b32:	d8efd0ef          	jal	ra,c0 <memcpy>
    2b36:	d844                	sw	s1,52(s0)
    2b38:	07644783          	lbu	a5,118(s0)
    2b3c:	0087c793          	xori	a5,a5,8
    2b40:	06f40b23          	sb	a5,118(s0)
    2b44:	07644783          	lbu	a5,118(s0)
    2b48:	0fc7f793          	andi	a5,a5,252
    2b4c:	06f40b23          	sb	a5,118(s0)
    2b50:	b539                	j	295e <USBHS_IRQHandler+0x9a>
    2b52:	8701c703          	lbu	a4,-1936(gp) # 20000388 <SetupReq>
    2b56:	4615                	li	a2,5
    2b58:	0ff77693          	zext.b	a3,a4
    2b5c:	08c70463          	beq	a4,a2,2be4 <USBHS_IRQHandler+0x320>
    2b60:	4799                	li	a5,6
    2b62:	08f69a63          	bne	a3,a5,2bf6 <USBHS_IRQHandler+0x332>
    2b66:	87a1d703          	lhu	a4,-1926(gp) # 20000392 <SetupLen>
    2b6a:	03f00793          	li	a5,63
    2b6e:	86c1a483          	lw	s1,-1940(gp) # 20000384 <pDescr>
    2b72:	0ce7e063          	bltu	a5,a4,2c32 <USBHS_IRQHandler+0x36e>
    2b76:	87a1d403          	lhu	s0,-1926(gp) # 20000392 <SetupLen>
    2b7a:	20023537          	lui	a0,0x20023
    2b7e:	85a6                	mv	a1,s1
    2b80:	0442                	slli	s0,s0,0x10
    2b82:	8041                	srli	s0,s0,0x10
    2b84:	8622                	mv	a2,s0
    2b86:	20050513          	addi	a0,a0,512 # 20023200 <endp0RTbuff>
    2b8a:	d36fd0ef          	jal	ra,c0 <memcpy>
    2b8e:	87a1d783          	lhu	a5,-1926(gp) # 20000392 <SetupLen>
    2b92:	94a2                	add	s1,s1,s0
    2b94:	8691a623          	sw	s1,-1940(gp) # 20000384 <pDescr>
    2b98:	8f81                	sub	a5,a5,s0
    2b9a:	07c2                	slli	a5,a5,0x10
    2b9c:	83c1                	srli	a5,a5,0x10
    2b9e:	86f19d23          	sh	a5,-1926(gp) # 20000392 <SetupLen>
    2ba2:	c831                	beqz	s0,2bf6 <USBHS_IRQHandler+0x332>
    2ba4:	400097b7          	lui	a5,0x40009
    2ba8:	06879823          	sh	s0,112(a5) # 40009070 <_dmadata_end+0x1ffe5c70>
    2bac:	0727c703          	lbu	a4,114(a5)
    2bb0:	00874713          	xori	a4,a4,8
    2bb4:	06e78923          	sb	a4,114(a5)
    2bb8:	0727c703          	lbu	a4,114(a5)
    2bbc:	0fc77713          	andi	a4,a4,252
    2bc0:	06e78923          	sb	a4,114(a5)
    2bc4:	bb69                	j	295e <USBHS_IRQHandler+0x9a>
    2bc6:	400097b7          	lui	a5,0x40009
    2bca:	06079823          	sh	zero,112(a5) # 40009070 <_dmadata_end+0x1ffe5c70>
    2bce:	4721                	li	a4,8
    2bd0:	06e78923          	sb	a4,114(a5)
    2bd4:	060789a3          	sb	zero,115(a5)
    2bd8:	b359                	j	295e <USBHS_IRQHandler+0x9a>
    2bda:	87a1d683          	lhu	a3,-1926(gp) # 20000392 <SetupLen>
    2bde:	06c2                	slli	a3,a3,0x10
    2be0:	82c1                	srli	a3,a3,0x10
    2be2:	b3c5                	j	29c2 <USBHS_IRQHandler+0xfe>
    2be4:	8751c703          	lbu	a4,-1931(gp) # 2000038d <g_devInfo+0x1>
    2be8:	84f18623          	sb	a5,-1972(gp) # 20000364 <g_DeviceUsbType>
    2bec:	468d                	li	a3,3
    2bee:	84d186a3          	sb	a3,-1971(gp) # 20000365 <g_DeviceConnectstatus>
    2bf2:	00e401a3          	sb	a4,3(s0)
    2bf6:	400097b7          	lui	a5,0x40009
    2bfa:	4721                	li	a4,8
    2bfc:	06e789a3          	sb	a4,115(a5) # 40009073 <_dmadata_end+0x1ffe5c73>
    2c00:	06079823          	sh	zero,112(a5)
    2c04:	06078923          	sb	zero,114(a5)
    2c08:	bb99                	j	295e <USBHS_IRQHandler+0x9a>
    2c0a:	200214b7          	lui	s1,0x20021
    2c0e:	20022637          	lui	a2,0x20022
    2c12:	20048593          	addi	a1,s1,512 # 20021200 <endp1Rbuff>
    2c16:	20060613          	addi	a2,a2,512 # 20022200 <endp1Tbuff>
    2c1a:	4501                	li	a0,0
    2c1c:	2bf5                	jal	3218 <usb_cmd_rx>
    2c1e:	20048493          	addi	s1,s1,512
    2c22:	8691a223          	sw	s1,-1948(gp) # 2000037c <pUEP1_RX_data>
    2c26:	8601a023          	sw	zero,-1952(gp) # 20000378 <EP1_OUT_seq_num>
    2c2a:	400097b7          	lui	a5,0x40009
    2c2e:	cf84                	sw	s1,24(a5)
    2c30:	b555                	j	2ad4 <USBHS_IRQHandler+0x210>
    2c32:	20023537          	lui	a0,0x20023
    2c36:	85a6                	mv	a1,s1
    2c38:	04000613          	li	a2,64
    2c3c:	20050513          	addi	a0,a0,512 # 20023200 <endp0RTbuff>
    2c40:	c80fd0ef          	jal	ra,c0 <memcpy>
    2c44:	87a1d783          	lhu	a5,-1926(gp) # 20000392 <SetupLen>
    2c48:	04048493          	addi	s1,s1,64
    2c4c:	8691a623          	sw	s1,-1940(gp) # 20000384 <pDescr>
    2c50:	fc078793          	addi	a5,a5,-64 # 40008fc0 <_dmadata_end+0x1ffe5bc0>
    2c54:	07c2                	slli	a5,a5,0x10
    2c56:	83c1                	srli	a5,a5,0x10
    2c58:	86f19d23          	sh	a5,-1926(gp) # 20000392 <SetupLen>
    2c5c:	04000413          	li	s0,64
    2c60:	b791                	j	2ba4 <USBHS_IRQHandler+0x2e0>

00002c62 <usb_descriptor_set_usb_vid_pid>:
usb_descriptor_set_usb_vid_pid():
    2c62:	00054783          	lbu	a5,0(a0)
    2c66:	20000737          	lui	a4,0x20000
    2c6a:	26470713          	addi	a4,a4,612 # 20000264 <USB_HS_DeviceDescriptor>
    2c6e:	00f70423          	sb	a5,8(a4)
    2c72:	00154683          	lbu	a3,1(a0)
    2c76:	200007b7          	lui	a5,0x20000
    2c7a:	25078793          	addi	a5,a5,592 # 20000250 <USB_SS_DeviceDescriptor>
    2c7e:	00d704a3          	sb	a3,9(a4)
    2c82:	00054683          	lbu	a3,0(a0)
    2c86:	00d78423          	sb	a3,8(a5)
    2c8a:	00154683          	lbu	a3,1(a0)
    2c8e:	00d784a3          	sb	a3,9(a5)
    2c92:	00254683          	lbu	a3,2(a0)
    2c96:	00d70523          	sb	a3,10(a4)
    2c9a:	00354683          	lbu	a3,3(a0)
    2c9e:	00d705a3          	sb	a3,11(a4)
    2ca2:	00254703          	lbu	a4,2(a0)
    2ca6:	00e78523          	sb	a4,10(a5)
    2caa:	00354703          	lbu	a4,3(a0)
    2cae:	00e785a3          	sb	a4,11(a5)
    2cb2:	8082                	ret

00002cb4 <usb_descriptor_set_string_serial_number>:
usb_descriptor_set_string_serial_number():
    2cb4:	00054703          	lbu	a4,0(a0)
    2cb8:	6795                	lui	a5,0x5
    2cba:	44c78793          	addi	a5,a5,1100 # 544c <htoa>
    2cbe:	00475693          	srli	a3,a4,0x4
    2cc2:	8b3d                	andi	a4,a4,15
    2cc4:	96be                	add	a3,a3,a5
    2cc6:	973e                	add	a4,a4,a5
    2cc8:	0006c603          	lbu	a2,0(a3)
    2ccc:	00074683          	lbu	a3,0(a4)
    2cd0:	20000737          	lui	a4,0x20000
    2cd4:	12c70713          	addi	a4,a4,300 # 2000012c <USB_StringSerial>
    2cd8:	00c70e23          	sb	a2,28(a4)
    2cdc:	00d70f23          	sb	a3,30(a4)
    2ce0:	00154683          	lbu	a3,1(a0)
    2ce4:	0046d613          	srli	a2,a3,0x4
    2ce8:	8abd                	andi	a3,a3,15
    2cea:	963e                	add	a2,a2,a5
    2cec:	96be                	add	a3,a3,a5
    2cee:	00064603          	lbu	a2,0(a2)
    2cf2:	0006c683          	lbu	a3,0(a3)
    2cf6:	02c70023          	sb	a2,32(a4)
    2cfa:	02d70123          	sb	a3,34(a4)
    2cfe:	00254683          	lbu	a3,2(a0)
    2d02:	0046d613          	srli	a2,a3,0x4
    2d06:	8abd                	andi	a3,a3,15
    2d08:	963e                	add	a2,a2,a5
    2d0a:	96be                	add	a3,a3,a5
    2d0c:	00064603          	lbu	a2,0(a2)
    2d10:	0006c683          	lbu	a3,0(a3)
    2d14:	02c70223          	sb	a2,36(a4)
    2d18:	02d70323          	sb	a3,38(a4)
    2d1c:	00354683          	lbu	a3,3(a0)
    2d20:	0046d613          	srli	a2,a3,0x4
    2d24:	8abd                	andi	a3,a3,15
    2d26:	963e                	add	a2,a2,a5
    2d28:	96be                	add	a3,a3,a5
    2d2a:	00064603          	lbu	a2,0(a2)
    2d2e:	0006c683          	lbu	a3,0(a3)
    2d32:	02c70423          	sb	a2,40(a4)
    2d36:	02d70523          	sb	a3,42(a4)
    2d3a:	00454683          	lbu	a3,4(a0)
    2d3e:	0046d613          	srli	a2,a3,0x4
    2d42:	8abd                	andi	a3,a3,15
    2d44:	963e                	add	a2,a2,a5
    2d46:	96be                	add	a3,a3,a5
    2d48:	00064603          	lbu	a2,0(a2)
    2d4c:	0006c683          	lbu	a3,0(a3)
    2d50:	02c70623          	sb	a2,44(a4)
    2d54:	02d70723          	sb	a3,46(a4)
    2d58:	00554683          	lbu	a3,5(a0)
    2d5c:	0046d613          	srli	a2,a3,0x4
    2d60:	8abd                	andi	a3,a3,15
    2d62:	963e                	add	a2,a2,a5
    2d64:	96be                	add	a3,a3,a5
    2d66:	00064603          	lbu	a2,0(a2)
    2d6a:	0006c683          	lbu	a3,0(a3)
    2d6e:	02c70823          	sb	a2,48(a4)
    2d72:	02d70923          	sb	a3,50(a4)
    2d76:	00654683          	lbu	a3,6(a0)
    2d7a:	0046d613          	srli	a2,a3,0x4
    2d7e:	963e                	add	a2,a2,a5
    2d80:	00064603          	lbu	a2,0(a2)
    2d84:	8abd                	andi	a3,a3,15
    2d86:	96be                	add	a3,a3,a5
    2d88:	02c70a23          	sb	a2,52(a4)
    2d8c:	0006c683          	lbu	a3,0(a3)
    2d90:	02d70b23          	sb	a3,54(a4)
    2d94:	00754683          	lbu	a3,7(a0)
    2d98:	0046d613          	srli	a2,a3,0x4
    2d9c:	8abd                	andi	a3,a3,15
    2d9e:	963e                	add	a2,a2,a5
    2da0:	97b6                	add	a5,a5,a3
    2da2:	0007c783          	lbu	a5,0(a5)
    2da6:	00064683          	lbu	a3,0(a2)
    2daa:	02f70d23          	sb	a5,58(a4)
    2dae:	02d70c23          	sb	a3,56(a4)
    2db2:	8082                	ret

00002db4 <cdc_recv_data>:
cdc_recv_data():
    2db4:	88c1a023          	sw	a2,-1920(gp) # 20000398 <cdc_len>
    2db8:	4505                	li	a0,1
    2dba:	8082                	ret

00002dbc <cdc_line_coding_change>:
cdc_line_coding_change():
    2dbc:	8082                	ret

00002dbe <cdc_send_done>:
cdc_send_done():
    2dbe:	411c                	lw	a5,0(a0)
    2dc0:	1141                	addi	sp,sp,-16
    2dc2:	c606                	sw	ra,12(sp)
    2dc4:	00954583          	lbu	a1,9(a0)
    2dc8:	4388                	lw	a0,0(a5)
    2dca:	abefe0ef          	jal	ra,1088 <tusb_dev_drv_set_rx_valid>
    2dce:	40b2                	lw	ra,12(sp)
    2dd0:	4501                	li	a0,0
    2dd2:	0141                	addi	sp,sp,16
    2dd4:	8082                	ret

00002dd6 <main>:
main():
    2dd6:	711d                	addi	sp,sp,-96
    2dd8:	ce86                	sw	ra,92(sp)
    2dda:	cca2                	sw	s0,88(sp)
    2ddc:	caa6                	sw	s1,84(sp)
    2dde:	c8ca                	sw	s2,80(sp)
    2de0:	c6ce                	sw	s3,76(sp)
    2de2:	c4d2                	sw	s4,72(sp)
    2de4:	c2d6                	sw	s5,68(sp)
    2de6:	07271a37          	lui	s4,0x7271
    2dea:	c0da                	sw	s6,64(sp)
    2dec:	de5e                	sw	s7,60(sp)
    2dee:	dc62                	sw	s8,56(sp)
    2df0:	da66                	sw	s9,52(sp)
    2df2:	d86a                	sw	s10,48(sp)
    2df4:	d66e                	sw	s11,44(sp)
    2df6:	b70fe0ef          	jal	ra,1166 <bsp_gpio_init>
    2dfa:	e00a0513          	addi	a0,s4,-512 # 7270e00 <_data_lma+0x726b560>
    2dfe:	819fd0ef          	jal	ra,616 <bsp_init>
    2e02:	20000537          	lui	a0,0x20000
    2e06:	5c450513          	addi	a0,a0,1476 # 200005c4 <log_buf>
    2e0a:	d50fd0ef          	jal	ra,35a <log_init>
    2e0e:	6515                	lui	a0,0x5
    2e10:	45c50513          	addi	a0,a0,1116 # 545c <htoa+0x10>
    2e14:	d66fd0ef          	jal	ra,37a <log_printf>
    2e18:	40001937          	lui	s2,0x40001
    2e1c:	00194583          	lbu	a1,1(s2) # 40001001 <_dmadata_end+0x1ffddc01>
    2e20:	6515                	lui	a0,0x5
    2e22:	46450513          	addi	a0,a0,1124 # 5464 <htoa+0x18>
    2e26:	d54fd0ef          	jal	ra,37a <log_printf>
    2e2a:	00078537          	lui	a0,0x78
    2e2e:	88818413          	addi	s0,gp,-1912 # 200003a0 <unique_id>
    2e32:	88818593          	addi	a1,gp,-1912 # 200003a0 <unique_id>
    2e36:	8801a423          	sw	zero,-1912(gp) # 200003a0 <unique_id>
    2e3a:	4621                	li	a2,8
    2e3c:	1511                	addi	a0,a0,-28 # 77fe4 <_data_lma+0x72744>
    2e3e:	00042223          	sw	zero,4(s0)
    2e42:	ea6fd0ef          	jal	ra,4e8 <FLASH_ROMA_READ>
    2e46:	00744303          	lbu	t1,7(s0)
    2e4a:	00644883          	lbu	a7,6(s0)
    2e4e:	00544803          	lbu	a6,5(s0)
    2e52:	00344703          	lbu	a4,3(s0)
    2e56:	00244683          	lbu	a3,2(s0)
    2e5a:	00444783          	lbu	a5,4(s0)
    2e5e:	00144603          	lbu	a2,1(s0)
    2e62:	8881c583          	lbu	a1,-1912(gp) # 200003a0 <unique_id>
    2e66:	6515                	lui	a0,0x5
    2e68:	c01a                	sw	t1,0(sp)
    2e6a:	47850513          	addi	a0,a0,1144 # 5478 <htoa+0x2c>
    2e6e:	d0cfd0ef          	jal	ra,37a <log_printf>
    2e72:	6515                	lui	a0,0x5
    2e74:	07800593          	li	a1,120
    2e78:	4b850513          	addi	a0,a0,1208 # 54b8 <htoa+0x6c>
    2e7c:	cfefd0ef          	jal	ra,37a <log_printf>
    2e80:	6515                	lui	a0,0x5
    2e82:	6605                	lui	a2,0x1
    2e84:	6585                	lui	a1,0x1
    2e86:	4f050513          	addi	a0,a0,1264 # 54f0 <htoa+0xa4>
    2e8a:	cf0fd0ef          	jal	ra,37a <log_printf>
    2e8e:	400097b7          	lui	a5,0x40009
    2e92:	0007a023          	sw	zero,0(a5) # 40009000 <_dmadata_end+0x1ffe5c00>
    2e96:	e000e437          	lui	s0,0xe000e
    2e9a:	001007b7          	lui	a5,0x100
    2e9e:	10f42023          	sw	a5,256(s0) # e000e100 <_dmadata_end+0xbffead00>
    2ea2:	002007b7          	lui	a5,0x200
    2ea6:	10f42023          	sw	a5,256(s0)
    2eaa:	000207b7          	lui	a5,0x20
    2eae:	10f42023          	sw	a5,256(s0)
    2eb2:	4985                	li	s3,1
    2eb4:	400027b7          	lui	a5,0x40002
    2eb8:	03fe5537          	lui	a0,0x3fe5
    2ebc:	01378123          	sb	s3,2(a5) # 40002002 <_dmadata_end+0x1ffdec02>
    2ec0:	6c050513          	addi	a0,a0,1728 # 3fe56c0 <_data_lma+0x3fdfe20>
    2ec4:	f3efd0ef          	jal	ra,602 <TMR0_TimerInit>
    2ec8:	88818513          	addi	a0,gp,-1912 # 200003a0 <unique_id>
    2ecc:	33e5                	jal	2cb4 <usb_descriptor_set_string_serial_number>
    2ece:	80818513          	addi	a0,gp,-2040 # 20000320 <vid_pid>
    2ed2:	3b41                	jal	2c62 <usb_descriptor_set_usb_vid_pid>
    2ed4:	4505                	li	a0,1
    2ed6:	db8fe0ef          	jal	ra,148e <USB30D_init>
    2eda:	04892783          	lw	a5,72(s2)
    2ede:	4585                	li	a1,1
    2ee0:	4511                	li	a0,4
    2ee2:	0087e793          	ori	a5,a5,8
    2ee6:	04f92423          	sw	a5,72(s2)
    2eea:	a38fd0ef          	jal	ra,122 <GPIOA_ModeCfg>
    2eee:	4595                	li	a1,5
    2ef0:	4521                	li	a0,8
    2ef2:	a30fd0ef          	jal	ra,122 <GPIOA_ModeCfg>
    2ef6:	6571                	lui	a0,0x1c
    2ef8:	e00a0593          	addi	a1,s4,-512
    2efc:	20050513          	addi	a0,a0,512 # 1c200 <_data_lma+0x16960>
    2f00:	a29fd0ef          	jal	ra,928 <UART2_init>
    2f04:	4501                	li	a0,0
    2f06:	a77fd0ef          	jal	ra,97c <UART2_ByteTrigCfg>
    2f0a:	4595                	li	a1,5
    2f0c:	4505                	li	a0,1
    2f0e:	89318223          	sb	s3,-1916(gp) # 2000039c <trigB>
    2f12:	a85fd0ef          	jal	ra,996 <UART2_INTCfg>
    2f16:	800007b7          	lui	a5,0x80000
    2f1a:	10f42023          	sw	a5,256(s0)
    2f1e:	57fd                	li	a5,-1
    2f20:	ce3e                	sw	a5,28(sp)
    2f22:	20000bb7          	lui	s7,0x20000
    2f26:	200007b7          	lui	a5,0x20000
    2f2a:	03030437          	lui	s0,0x3030
    2f2e:	808089b7          	lui	s3,0x80808
    2f32:	7f7f8937          	lui	s2,0x7f7f8
    2f36:	3c478a13          	addi	s4,a5,964 # 200003c4 <cdc_buf>
    2f3a:	278b8b93          	addi	s7,s7,632 # 20000278 <cdc_dev>
    2f3e:	4b0d                	li	s6,3
    2f40:	4c09                	li	s8,2
    2f42:	30340413          	addi	s0,s0,771 # 3030303 <_data_lma+0x302aa63>
    2f46:	08098993          	addi	s3,s3,128 # 80808080 <_dmadata_end+0x607e4c80>
    2f4a:	f7f90913          	addi	s2,s2,-129 # 7f7f7f7f <_dmadata_end+0x5f7d4b7f>
    2f4e:	a76fe0ef          	jal	ra,11c4 <bsp_ubtn>
    2f52:	8daa                	mv	s11,a0
    2f54:	ed55                	bnez	a0,3010 <main+0x23a>
    2f56:	03200713          	li	a4,50
    2f5a:	80e1a623          	sw	a4,-2036(gp) # 20000324 <blink_ms>
    2f5e:	a74fe0ef          	jal	ra,11d2 <bsp_uled_on>
    2f62:	80c1a503          	lw	a0,-2036(gp) # 20000324 <blink_ms>
    2f66:	f7cfd0ef          	jal	ra,6e2 <bsp_wait_ms_delay>
    2f6a:	a78fe0ef          	jal	ra,11e2 <bsp_uled_off>
    2f6e:	80c1a503          	lw	a0,-2036(gp) # 20000324 <blink_ms>
    2f72:	f70fd0ef          	jal	ra,6e2 <bsp_wait_ms_delay>
    2f76:	8801a683          	lw	a3,-1920(gp) # 20000398 <cdc_len>
    2f7a:	daf1                	beqz	a3,2f4e <main+0x178>
    2f7c:	06d05763          	blez	a3,2fea <main+0x214>
    2f80:	fff68713          	addi	a4,a3,-1
    2f84:	02ec7863          	bgeu	s8,a4,2fb4 <main+0x1de>
    2f88:	ffc6f593          	andi	a1,a3,-4
    2f8c:	8652                	mv	a2,s4
    2f8e:	95d2                	add	a1,a1,s4
    2f90:	421c                	lw	a5,0(a2)
    2f92:	0611                	addi	a2,a2,4 # 1004 <tusb_dev_drv_send_data+0x326>
    2f94:	0087c733          	xor	a4,a5,s0
    2f98:	0127f7b3          	and	a5,a5,s2
    2f9c:	01377733          	and	a4,a4,s3
    2fa0:	97a2                	add	a5,a5,s0
    2fa2:	8fb9                	xor	a5,a5,a4
    2fa4:	fef62e23          	sw	a5,-4(a2)
    2fa8:	fec594e3          	bne	a1,a2,2f90 <main+0x1ba>
    2fac:	ffc6fd93          	andi	s11,a3,-4
    2fb0:	03b68d63          	beq	a3,s11,2fea <main+0x214>
    2fb4:	01ba05b3          	add	a1,s4,s11
    2fb8:	0005c603          	lbu	a2,0(a1) # 1000 <tusb_dev_drv_send_data+0x322>
    2fbc:	001d8713          	addi	a4,s11,1
    2fc0:	060d                	addi	a2,a2,3
    2fc2:	00c58023          	sb	a2,0(a1)
    2fc6:	02d75263          	bge	a4,a3,2fea <main+0x214>
    2fca:	9752                	add	a4,a4,s4
    2fcc:	00074603          	lbu	a2,0(a4)
    2fd0:	002d8793          	addi	a5,s11,2
    2fd4:	060d                	addi	a2,a2,3
    2fd6:	00c70023          	sb	a2,0(a4)
    2fda:	00d7d863          	bge	a5,a3,2fea <main+0x214>
    2fde:	97d2                	add	a5,a5,s4
    2fe0:	0007c703          	lbu	a4,0(a5)
    2fe4:	070d                	addi	a4,a4,3
    2fe6:	00e78023          	sb	a4,0(a5)
    2fea:	000ba783          	lw	a5,0(s7)
    2fee:	008bc583          	lbu	a1,8(s7)
    2ff2:	08000713          	li	a4,128
    2ff6:	4388                	lw	a0,0(a5)
    2ff8:	200007b7          	lui	a5,0x20000
    2ffc:	3c478613          	addi	a2,a5,964 # 200003c4 <cdc_buf>
    3000:	cdffd0ef          	jal	ra,cde <tusb_dev_drv_send_data>
    3004:	8801a023          	sw	zero,-1920(gp) # 20000398 <cdc_len>
    3008:	9bcfe0ef          	jal	ra,11c4 <bsp_ubtn>
    300c:	8daa                	mv	s11,a0
    300e:	d521                	beqz	a0,2f56 <main+0x180>
    3010:	84d1c783          	lbu	a5,-1971(gp) # 20000365 <g_DeviceConnectstatus>
    3014:	0b679e63          	bne	a5,s6,30d0 <main+0x2fa>
    3018:	84c1c783          	lbu	a5,-1972(gp) # 20000364 <g_DeviceUsbType>
    301c:	0ff7f713          	zext.b	a4,a5
    3020:	0b878b63          	beq	a5,s8,30d6 <main+0x300>
    3024:	0b671663          	bne	a4,s6,30d0 <main+0x2fa>
    3028:	84c1c783          	lbu	a5,-1972(gp) # 20000364 <g_DeviceUsbType>
    302c:	4772                	lw	a4,28(sp)
    302e:	00e78c63          	beq	a5,a4,3046 <main+0x270>
    3032:	84c1c783          	lbu	a5,-1972(gp) # 20000364 <g_DeviceUsbType>
    3036:	6715                	lui	a4,0x5
    3038:	68c70513          	addi	a0,a4,1676 # 568c <htoa+0x240>
    303c:	0ff7f793          	zext.b	a5,a5
    3040:	ce3e                	sw	a5,28(sp)
    3042:	b38fd0ef          	jal	ra,37a <log_printf>
    3046:	0fa00793          	li	a5,250
    304a:	80f1a623          	sw	a5,-2036(gp) # 20000324 <blink_ms>
    304e:	984fe0ef          	jal	ra,11d2 <bsp_uled_on>
    3052:	80c1a503          	lw	a0,-2036(gp) # 20000324 <blink_ms>
    3056:	e8cfd0ef          	jal	ra,6e2 <bsp_wait_ms_delay>
    305a:	988fe0ef          	jal	ra,11e2 <bsp_uled_off>
    305e:	80c1a503          	lw	a0,-2036(gp) # 20000324 <blink_ms>
    3062:	e80fd0ef          	jal	ra,6e2 <bsp_wait_ms_delay>
    3066:	8801a683          	lw	a3,-1920(gp) # 20000398 <cdc_len>
    306a:	ee0682e3          	beqz	a3,2f4e <main+0x178>
    306e:	f6d05ee3          	blez	a3,2fea <main+0x214>
    3072:	fff68793          	addi	a5,a3,-1
    3076:	12fc7963          	bgeu	s8,a5,31a8 <main+0x3d2>
    307a:	ffc6f593          	andi	a1,a3,-4
    307e:	8652                	mv	a2,s4
    3080:	95d2                	add	a1,a1,s4
    3082:	421c                	lw	a5,0(a2)
    3084:	0611                	addi	a2,a2,4
    3086:	0087c733          	xor	a4,a5,s0
    308a:	0127f7b3          	and	a5,a5,s2
    308e:	01377733          	and	a4,a4,s3
    3092:	97a2                	add	a5,a5,s0
    3094:	8fb9                	xor	a5,a5,a4
    3096:	fef62e23          	sw	a5,-4(a2)
    309a:	feb614e3          	bne	a2,a1,3082 <main+0x2ac>
    309e:	ffc6f793          	andi	a5,a3,-4
    30a2:	f4f684e3          	beq	a3,a5,2fea <main+0x214>
    30a6:	00fa05b3          	add	a1,s4,a5
    30aa:	0005c603          	lbu	a2,0(a1)
    30ae:	00178713          	addi	a4,a5,1
    30b2:	060d                	addi	a2,a2,3
    30b4:	00c58023          	sb	a2,0(a1)
    30b8:	f2d759e3          	bge	a4,a3,2fea <main+0x214>
    30bc:	9752                	add	a4,a4,s4
    30be:	00074603          	lbu	a2,0(a4)
    30c2:	0789                	addi	a5,a5,2
    30c4:	060d                	addi	a2,a2,3
    30c6:	00c70023          	sb	a2,0(a4)
    30ca:	f0d7cae3          	blt	a5,a3,2fde <main+0x208>
    30ce:	bf31                	j	2fea <main+0x214>
    30d0:	902fe0ef          	jal	ra,11d2 <bsp_uled_on>
    30d4:	bdad                	j	2f4e <main+0x178>
    30d6:	84c1c783          	lbu	a5,-1972(gp) # 20000364 <g_DeviceUsbType>
    30da:	4772                	lw	a4,28(sp)
    30dc:	00e78c63          	beq	a5,a4,30f4 <main+0x31e>
    30e0:	84c1c783          	lbu	a5,-1972(gp) # 20000364 <g_DeviceUsbType>
    30e4:	6715                	lui	a4,0x5
    30e6:	67470513          	addi	a0,a4,1652 # 5674 <htoa+0x228>
    30ea:	0ff7f793          	zext.b	a5,a5
    30ee:	ce3e                	sw	a5,28(sp)
    30f0:	a8afd0ef          	jal	ra,37a <log_printf>
    30f4:	8801a683          	lw	a3,-1920(gp) # 20000398 <cdc_len>
    30f8:	e295                	bnez	a3,311c <main+0x346>
    30fa:	1f400793          	li	a5,500
    30fe:	80f1a623          	sw	a5,-2036(gp) # 20000324 <blink_ms>
    3102:	8d0fe0ef          	jal	ra,11d2 <bsp_uled_on>
    3106:	80c1a503          	lw	a0,-2036(gp) # 20000324 <blink_ms>
    310a:	dd8fd0ef          	jal	ra,6e2 <bsp_wait_ms_delay>
    310e:	8d4fe0ef          	jal	ra,11e2 <bsp_uled_off>
    3112:	80c1a503          	lw	a0,-2036(gp) # 20000324 <blink_ms>
    3116:	dccfd0ef          	jal	ra,6e2 <bsp_wait_ms_delay>
    311a:	bd15                	j	2f4e <main+0x178>
    311c:	06d05663          	blez	a3,3188 <main+0x3b2>
    3120:	fff68793          	addi	a5,a3,-1
    3124:	08fc7463          	bgeu	s8,a5,31ac <main+0x3d6>
    3128:	ffc6f593          	andi	a1,a3,-4
    312c:	8652                	mv	a2,s4
    312e:	95d2                	add	a1,a1,s4
    3130:	421c                	lw	a5,0(a2)
    3132:	0611                	addi	a2,a2,4
    3134:	0087c733          	xor	a4,a5,s0
    3138:	0127f7b3          	and	a5,a5,s2
    313c:	01377733          	and	a4,a4,s3
    3140:	97a2                	add	a5,a5,s0
    3142:	8fb9                	xor	a5,a5,a4
    3144:	fef62e23          	sw	a5,-4(a2)
    3148:	feb614e3          	bne	a2,a1,3130 <main+0x35a>
    314c:	ffc6f793          	andi	a5,a3,-4
    3150:	02f68c63          	beq	a3,a5,3188 <main+0x3b2>
    3154:	00fa05b3          	add	a1,s4,a5
    3158:	0005c603          	lbu	a2,0(a1)
    315c:	00178713          	addi	a4,a5,1
    3160:	060d                	addi	a2,a2,3
    3162:	00c58023          	sb	a2,0(a1)
    3166:	02d75163          	bge	a4,a3,3188 <main+0x3b2>
    316a:	9752                	add	a4,a4,s4
    316c:	00074603          	lbu	a2,0(a4)
    3170:	0789                	addi	a5,a5,2
    3172:	060d                	addi	a2,a2,3
    3174:	00c70023          	sb	a2,0(a4)
    3178:	00d7d863          	bge	a5,a3,3188 <main+0x3b2>
    317c:	97d2                	add	a5,a5,s4
    317e:	0007c703          	lbu	a4,0(a5)
    3182:	070d                	addi	a4,a4,3
    3184:	00e78023          	sb	a4,0(a5)
    3188:	000ba783          	lw	a5,0(s7)
    318c:	008bc583          	lbu	a1,8(s7)
    3190:	08000713          	li	a4,128
    3194:	4388                	lw	a0,0(a5)
    3196:	200007b7          	lui	a5,0x20000
    319a:	3c478613          	addi	a2,a5,964 # 200003c4 <cdc_buf>
    319e:	b41fd0ef          	jal	ra,cde <tusb_dev_drv_send_data>
    31a2:	8801a023          	sw	zero,-1920(gp) # 20000398 <cdc_len>
    31a6:	bf91                	j	30fa <main+0x324>
    31a8:	4781                	li	a5,0
    31aa:	bdf5                	j	30a6 <main+0x2d0>
    31ac:	4781                	li	a5,0
    31ae:	b75d                	j	3154 <main+0x37e>

000031b0 <HardFault_Handler>:
HardFault_Handler():
    31b0:	6515                	lui	a0,0x5
    31b2:	52050513          	addi	a0,a0,1312 # 5520 <htoa+0xd4>
    31b6:	163000ef          	jal	ra,3b18 <puts>
    31ba:	f65fc0ef          	jal	ra,11e <__get_SP>
    31be:	85aa                	mv	a1,a0
    31c0:	6515                	lui	a0,0x5
    31c2:	52c50513          	addi	a0,a0,1324 # 552c <htoa+0xe0>
    31c6:	007000ef          	jal	ra,39cc <iprintf>
    31ca:	f49fc0ef          	jal	ra,112 <__get_MIE>
    31ce:	85aa                	mv	a1,a0
    31d0:	6515                	lui	a0,0x5
    31d2:	53850513          	addi	a0,a0,1336 # 5538 <htoa+0xec>
    31d6:	7f6000ef          	jal	ra,39cc <iprintf>
    31da:	f33fc0ef          	jal	ra,10c <__get_MSTATUS>
    31de:	85aa                	mv	a1,a0
    31e0:	6515                	lui	a0,0x5
    31e2:	54850513          	addi	a0,a0,1352 # 5548 <htoa+0xfc>
    31e6:	7e6000ef          	jal	ra,39cc <iprintf>
    31ea:	f2ffc0ef          	jal	ra,118 <__get_MCAUSE>
    31ee:	85aa                	mv	a1,a0
    31f0:	6515                	lui	a0,0x5
    31f2:	55c50513          	addi	a0,a0,1372 # 555c <htoa+0x110>
    31f6:	7d6000ef          	jal	ra,39cc <iprintf>
    31fa:	4505                	li	a0,1
    31fc:	ce6fd0ef          	jal	ra,6e2 <bsp_wait_ms_delay>
    3200:	30200073          	mret

00003204 <UART2_IRQHandler>:
UART2_IRQHandler():
    3204:	1141                	addi	sp,sp,-16
    3206:	c63e                	sw	a5,12(sp)
    3208:	400047b7          	lui	a5,0x40004
    320c:	8047c783          	lbu	a5,-2044(a5) # 40003804 <_dmadata_end+0x1ffe0404>
    3210:	47b2                	lw	a5,12(sp)
    3212:	0141                	addi	sp,sp,16
    3214:	30200073          	mret

00003218 <usb_cmd_rx>:
usb_cmd_rx():
    3218:	419c                	lw	a5,0(a1)
    321a:	1141                	addi	sp,sp,-16
    321c:	55534737          	lui	a4,0x55534
    3220:	c422                	sw	s0,8(sp)
    3222:	c606                	sw	ra,12(sp)
    3224:	c226                	sw	s1,4(sp)
    3226:	c04a                	sw	s2,0(sp)
    3228:	23270693          	addi	a3,a4,562 # 55534232 <_dmadata_end+0x35510e32>
    322c:	842a                	mv	s0,a0
    322e:	10d78863          	beq	a5,a3,333e <usb_cmd_rx+0x126>
    3232:	84b2                	mv	s1,a2
    3234:	06f6f363          	bgeu	a3,a5,329a <usb_cmd_rx+0x82>
    3238:	23370693          	addi	a3,a4,563
    323c:	12d78563          	beq	a5,a3,3366 <usb_cmd_rx+0x14e>
    3240:	25370713          	addi	a4,a4,595
    3244:	0ee79363          	bne	a5,a4,332a <usb_cmd_rx+0x112>
    3248:	4905                	li	s2,1
    324a:	0b250363          	beq	a0,s2,32f0 <usb_cmd_rx+0xd8>
    324e:	6515                	lui	a0,0x5
    3250:	5d450513          	addi	a0,a0,1492 # 55d4 <htoa+0x188>
    3254:	926fd0ef          	jal	ra,37a <log_printf>
    3258:	40009737          	lui	a4,0x40009
    325c:	00874783          	lbu	a5,8(a4) # 40009008 <_dmadata_end+0x1ffe5c08>
    3260:	00874683          	lbu	a3,8(a4)
    3264:	20001437          	lui	s0,0x20001
    3268:	8b8d                	andi	a5,a5,3
    326a:	8a8d                	andi	a3,a3,3
    326c:	13278063          	beq	a5,s2,338c <usb_cmd_rx+0x174>
    3270:	6615                	lui	a2,0x5
    3272:	6585                	lui	a1,0x1
    3274:	62860613          	addi	a2,a2,1576 # 5628 <htoa+0x1dc>
    3278:	15fd                	addi	a1,a1,-1 # fff <tusb_dev_drv_send_data+0x321>
    327a:	5c840513          	addi	a0,s0,1480 # 200015c8 <cmd_usb_info_buf>
    327e:	0cb000ef          	jal	ra,3b48 <sniprintf>
    3282:	6605                	lui	a2,0x1
    3284:	5c840593          	addi	a1,s0,1480
    3288:	8526                	mv	a0,s1
    328a:	e37fc0ef          	jal	ra,c0 <memcpy>
    328e:	40b2                	lw	ra,12(sp)
    3290:	4422                	lw	s0,8(sp)
    3292:	4492                	lw	s1,4(sp)
    3294:	4902                	lw	s2,0(sp)
    3296:	0141                	addi	sp,sp,16
    3298:	8082                	ret
    329a:	424f5737          	lui	a4,0x424f5
    329e:	f5470713          	addi	a4,a4,-172 # 424f4f54 <_dmadata_end+0x224d1b54>
    32a2:	06e78d63          	beq	a5,a4,331c <usb_cmd_rx+0x104>
    32a6:	4c4f4737          	lui	a4,0x4c4f4
    32aa:	75270713          	addi	a4,a4,1874 # 4c4f4752 <_dmadata_end+0x2c4d1352>
    32ae:	06e79e63          	bne	a5,a4,332a <usb_cmd_rx+0x112>
    32b2:	6515                	lui	a0,0x5
    32b4:	56c50513          	addi	a0,a0,1388 # 556c <htoa+0x120>
    32b8:	8c2fd0ef          	jal	ra,37a <log_printf>
    32bc:	200005b7          	lui	a1,0x20000
    32c0:	6785                	lui	a5,0x1
    32c2:	5c458413          	addi	s0,a1,1476 # 200005c4 <log_buf>
    32c6:	943e                	add	s0,s0,a5
    32c8:	00045603          	lhu	a2,0(s0)
    32cc:	8526                	mv	a0,s1
    32ce:	5c458593          	addi	a1,a1,1476
    32d2:	deffc0ef          	jal	ra,c0 <memcpy>
    32d6:	00045783          	lhu	a5,0(s0)
    32da:	97a6                	add	a5,a5,s1
    32dc:	00078023          	sb	zero,0(a5) # 1000 <tusb_dev_drv_send_data+0x322>
    32e0:	40b2                	lw	ra,12(sp)
    32e2:	00041023          	sh	zero,0(s0)
    32e6:	4422                	lw	s0,8(sp)
    32e8:	4492                	lw	s1,4(sp)
    32ea:	4902                	lw	s2,0(sp)
    32ec:	0141                	addi	sp,sp,16
    32ee:	8082                	ret
    32f0:	6515                	lui	a0,0x5
    32f2:	57850513          	addi	a0,a0,1400 # 5578 <htoa+0x12c>
    32f6:	884fd0ef          	jal	ra,37a <log_printf>
    32fa:	400087b7          	lui	a5,0x40008
    32fe:	4b94                	lw	a3,16(a5)
    3300:	4f98                	lw	a4,24(a5)
    3302:	4fdc                	lw	a5,28(a5)
    3304:	20001437          	lui	s0,0x20001
    3308:	6615                	lui	a2,0x5
    330a:	6585                	lui	a1,0x1
    330c:	58860613          	addi	a2,a2,1416 # 5588 <htoa+0x13c>
    3310:	15fd                	addi	a1,a1,-1 # fff <tusb_dev_drv_send_data+0x321>
    3312:	5c840513          	addi	a0,s0,1480 # 200015c8 <cmd_usb_info_buf>
    3316:	033000ef          	jal	ra,3b48 <sniprintf>
    331a:	b7a5                	j	3282 <usb_cmd_rx+0x6a>
    331c:	4422                	lw	s0,8(sp)
    331e:	40b2                	lw	ra,12(sp)
    3320:	4492                	lw	s1,4(sp)
    3322:	4902                	lw	s2,0(sp)
    3324:	0141                	addi	sp,sp,16
    3326:	99cfd06f          	j	4c2 <SYS_ResetExecute>
    332a:	4422                	lw	s0,8(sp)
    332c:	40b2                	lw	ra,12(sp)
    332e:	4492                	lw	s1,4(sp)
    3330:	4902                	lw	s2,0(sp)
    3332:	6515                	lui	a0,0x5
    3334:	6a050513          	addi	a0,a0,1696 # 56a0 <htoa+0x254>
    3338:	0141                	addi	sp,sp,16
    333a:	840fd06f          	j	37a <log_printf>
    333e:	6515                	lui	a0,0x5
    3340:	67050513          	addi	a0,a0,1648 # 5670 <htoa+0x224>
    3344:	836fd0ef          	jal	ra,37a <log_printf>
    3348:	4785                	li	a5,1
    334a:	f4f412e3          	bne	s0,a5,328e <usb_cmd_rx+0x76>
    334e:	6515                	lui	a0,0x5
    3350:	67c50513          	addi	a0,a0,1660 # 567c <htoa+0x230>
    3354:	826fd0ef          	jal	ra,37a <log_printf>
    3358:	4422                	lw	s0,8(sp)
    335a:	40b2                	lw	ra,12(sp)
    335c:	4492                	lw	s1,4(sp)
    335e:	4902                	lw	s2,0(sp)
    3360:	0141                	addi	sp,sp,16
    3362:	d9bfe06f          	j	20fc <USB2_force>
    3366:	6515                	lui	a0,0x5
    3368:	68850513          	addi	a0,a0,1672 # 5688 <htoa+0x23c>
    336c:	80efd0ef          	jal	ra,37a <log_printf>
    3370:	f0041fe3          	bnez	s0,328e <usb_cmd_rx+0x76>
    3374:	6515                	lui	a0,0x5
    3376:	69450513          	addi	a0,a0,1684 # 5694 <htoa+0x248>
    337a:	800fd0ef          	jal	ra,37a <log_printf>
    337e:	4422                	lw	s0,8(sp)
    3380:	40b2                	lw	ra,12(sp)
    3382:	4492                	lw	s1,4(sp)
    3384:	4902                	lw	s2,0(sp)
    3386:	0141                	addi	sp,sp,16
    3388:	e6bfd06f          	j	11f2 <USB3_force>
    338c:	6615                	lui	a2,0x5
    338e:	6585                	lui	a1,0x1
    3390:	5e460613          	addi	a2,a2,1508 # 55e4 <htoa+0x198>
    3394:	15fd                	addi	a1,a1,-1 # fff <tusb_dev_drv_send_data+0x321>
    3396:	5c840513          	addi	a0,s0,1480
    339a:	7ae000ef          	jal	ra,3b48 <sniprintf>
    339e:	b5d5                	j	3282 <usb_cmd_rx+0x6a>

000033a0 <NMI_Handler>:
NMI_Handler():
    33a0:	a001                	j	33a0 <NMI_Handler>
    33a2:	a001                	j	33a2 <NMI_Handler+0x2>

000033a4 <SysTick_Handler>:
SysTick_Handler():
    33a4:	a001                	j	33a4 <SysTick_Handler>

000033a6 <SW_Handler>:
SW_Handler():
    33a6:	a001                	j	33a6 <SW_Handler>

000033a8 <WDOG_IRQHandler>:
WDOG_IRQHandler():
    33a8:	a001                	j	33a8 <WDOG_IRQHandler>
    33aa:	a001                	j	33aa <WDOG_IRQHandler+0x2>

000033ac <GPIO_IRQHandler>:
GPIO_IRQHandler():
    33ac:	a001                	j	33ac <GPIO_IRQHandler>

000033ae <SPI0_IRQHandler>:
SPI0_IRQHandler():
    33ae:	a001                	j	33ae <SPI0_IRQHandler>
    33b0:	a001                	j	33b0 <SPI0_IRQHandler+0x2>
    33b2:	a001                	j	33b2 <SPI0_IRQHandler+0x4>

000033b4 <TMR1_IRQHandler>:
TMR1_IRQHandler():
    33b4:	a001                	j	33b4 <TMR1_IRQHandler>

000033b6 <TMR2_IRQHandler>:
TMR2_IRQHandler():
    33b6:	a001                	j	33b6 <TMR2_IRQHandler>

000033b8 <UART0_IRQHandler>:
UART0_IRQHandler():
    33b8:	a001                	j	33b8 <UART0_IRQHandler>
    33ba:	a001                	j	33ba <UART0_IRQHandler+0x2>

000033bc <EMMC_IRQHandler>:
EMMC_IRQHandler():
    33bc:	a001                	j	33bc <EMMC_IRQHandler>

000033be <DVP_IRQHandler>:
DVP_IRQHandler():
    33be:	a001                	j	33be <DVP_IRQHandler>

000033c0 <HSPI_IRQHandler>:
HSPI_IRQHandler():
    33c0:	a001                	j	33c0 <HSPI_IRQHandler>

000033c2 <SPI1_IRQHandler>:
SPI1_IRQHandler():
    33c2:	a001                	j	33c2 <SPI1_IRQHandler>

000033c4 <UART1_IRQHandler>:
UART1_IRQHandler():
    33c4:	a001                	j	33c4 <UART1_IRQHandler>
    33c6:	a001                	j	33c6 <UART1_IRQHandler+0x2>

000033c8 <UART3_IRQHandler>:
UART3_IRQHandler():
    33c8:	a001                	j	33c8 <UART3_IRQHandler>

000033ca <SERDES_IRQHandler>:
SERDES_IRQHandler():
    33ca:	a001                	j	33ca <SERDES_IRQHandler>

000033cc <ETH_IRQHandler>:
ETH_IRQHandler():
    33cc:	a001                	j	33cc <ETH_IRQHandler>

000033ce <PMT_IRQHandler>:
PMT_IRQHandler():
    33ce:	a001                	j	33ce <PMT_IRQHandler>

000033d0 <ECDC_IRQHandler>:
ECDC_IRQHandler():
    33d0:	a001                	j	33d0 <ECDC_IRQHandler>

000033d2 <handle_reset>:
handle_reset():
    33d2:	1fffd197          	auipc	gp,0x1fffd
    33d6:	74618193          	addi	gp,gp,1862 # 20000b18 <__global_pointer$>
    33da:	20001117          	auipc	sp,0x20001
    33de:	c2610113          	addi	sp,sp,-986 # 20004000 <_eusrstack>
    33e2:	00002517          	auipc	a0,0x2
    33e6:	4be50513          	addi	a0,a0,1214 # 58a0 <_data_lma>
    33ea:	1fffd597          	auipc	a1,0x1fffd
    33ee:	c1658593          	addi	a1,a1,-1002 # 20000000 <USB_PropertyHeader>
    33f2:	81c18613          	addi	a2,gp,-2020 # 20000334 <_edata>
    33f6:	00c5fa63          	bgeu	a1,a2,340a <handle_reset+0x38>
    33fa:	00052283          	lw	t0,0(a0)
    33fe:	0055a023          	sw	t0,0(a1)
    3402:	0511                	addi	a0,a0,4
    3404:	0591                	addi	a1,a1,4
    3406:	fec5eae3          	bltu	a1,a2,33fa <handle_reset+0x28>
    340a:	82018513          	addi	a0,gp,-2016 # 20000338 <debug_log_buf>
    340e:	1ffff597          	auipc	a1,0x1ffff
    3412:	1ba58593          	addi	a1,a1,442 # 200025c8 <_ebss>
    3416:	00b57763          	bgeu	a0,a1,3424 <handle_reset+0x52>
    341a:	00052023          	sw	zero,0(a0)
    341e:	0511                	addi	a0,a0,4
    3420:	feb56de3          	bltu	a0,a1,341a <handle_reset+0x48>
    3424:	2001d517          	auipc	a0,0x2001d
    3428:	bdc50513          	addi	a0,a0,-1060 # 20020000 <ep0_buff>
    342c:	20020597          	auipc	a1,0x20020
    3430:	fd458593          	addi	a1,a1,-44 # 20023400 <_dmadata_end>
    3434:	00b57763          	bgeu	a0,a1,3442 <handle_reset+0x70>
    3438:	00052023          	sw	zero,0(a0)
    343c:	0511                	addi	a0,a0,4
    343e:	feb56de3          	bltu	a0,a1,3438 <handle_reset+0x66>
    3442:	08800293          	li	t0,136
    3446:	3002a073          	csrs	mstatus,t0
    344a:	ffffd297          	auipc	t0,0xffffd
    344e:	bba28293          	addi	t0,t0,-1094 # 4 <_einit>
    3452:	0012e293          	ori	t0,t0,1
    3456:	30529073          	csrw	mtvec,t0

0000345a <__app_main_enter>:
__app_main_enter():
    345a:	4501                	li	a0,0
    345c:	4581                	li	a1,0
    345e:	979ff0ef          	jal	ra,2dd6 <main>

00003462 <__app_main_exit>:
__app_main_exit():
    3462:	a001                	j	3462 <__app_main_exit>

00003464 <__udivdi3>:
__udivdi3():
/media/maddocks/0e5c8f59-b86e-4423-a28c-b3830408c50a5/ch569/Work/riscv-none-elf-gcc-12.2.0-1/linux-arm64/sources/gcc-12.2.0/libgcc/libgcc2.c:1299
#endif

#ifdef L_udivdi3
UDWtype
__udivdi3 (UDWtype n, UDWtype d)
{
    3464:	88aa                	mv	a7,a0
    3466:	832e                	mv	t1,a1
__udivmoddi4():
/media/maddocks/0e5c8f59-b86e-4423-a28c-b3830408c50a5/ch569/Work/riscv-none-elf-gcc-12.2.0-1/linux-arm64/sources/gcc-12.2.0/libgcc/libgcc2.c:1004
  d0 = dd.s.low;
    3468:	8732                	mv	a4,a2
/media/maddocks/0e5c8f59-b86e-4423-a28c-b3830408c50a5/ch569/Work/riscv-none-elf-gcc-12.2.0-1/linux-arm64/sources/gcc-12.2.0/libgcc/libgcc2.c:1006
  n0 = nn.s.low;
    346a:	882a                	mv	a6,a0
/media/maddocks/0e5c8f59-b86e-4423-a28c-b3830408c50a5/ch569/Work/riscv-none-elf-gcc-12.2.0-1/linux-arm64/sources/gcc-12.2.0/libgcc/libgcc2.c:1007
  n1 = nn.s.high;
    346c:	87ae                	mv	a5,a1
/media/maddocks/0e5c8f59-b86e-4423-a28c-b3830408c50a5/ch569/Work/riscv-none-elf-gcc-12.2.0-1/linux-arm64/sources/gcc-12.2.0/libgcc/libgcc2.c:1044
  if (d1 == 0)
    346e:	20069663          	bnez	a3,367a <__udivdi3+0x216>
/media/maddocks/0e5c8f59-b86e-4423-a28c-b3830408c50a5/ch569/Work/riscv-none-elf-gcc-12.2.0-1/linux-arm64/sources/gcc-12.2.0/libgcc/libgcc2.c:1046
      if (d0 > n1)
    3472:	00002597          	auipc	a1,0x2
    3476:	23a58593          	addi	a1,a1,570 # 56ac <__clz_tab>
    347a:	0cc37163          	bgeu	t1,a2,353c <__udivdi3+0xd8>
/media/maddocks/0e5c8f59-b86e-4423-a28c-b3830408c50a5/ch569/Work/riscv-none-elf-gcc-12.2.0-1/linux-arm64/sources/gcc-12.2.0/libgcc/libgcc2.c:1050
	  count_leading_zeros (bm, d0);
    347e:	66c1                	lui	a3,0x10
    3480:	0ad67763          	bgeu	a2,a3,352e <__udivdi3+0xca>
    3484:	10063693          	sltiu	a3,a2,256
    3488:	0016c693          	xori	a3,a3,1
    348c:	068e                	slli	a3,a3,0x3
    348e:	00d65533          	srl	a0,a2,a3
    3492:	95aa                	add	a1,a1,a0
    3494:	0005c583          	lbu	a1,0(a1)
    3498:	02000513          	li	a0,32
    349c:	96ae                	add	a3,a3,a1
    349e:	40d505b3          	sub	a1,a0,a3
/media/maddocks/0e5c8f59-b86e-4423-a28c-b3830408c50a5/ch569/Work/riscv-none-elf-gcc-12.2.0-1/linux-arm64/sources/gcc-12.2.0/libgcc/libgcc2.c:1052
	  if (bm != 0)
    34a2:	00d50b63          	beq	a0,a3,34b8 <__udivdi3+0x54>
/media/maddocks/0e5c8f59-b86e-4423-a28c-b3830408c50a5/ch569/Work/riscv-none-elf-gcc-12.2.0-1/linux-arm64/sources/gcc-12.2.0/libgcc/libgcc2.c:1058
	      n1 = (n1 << bm) | (n0 >> (W_TYPE_SIZE - bm));
    34a6:	00b317b3          	sll	a5,t1,a1
    34aa:	00d8d6b3          	srl	a3,a7,a3
/media/maddocks/0e5c8f59-b86e-4423-a28c-b3830408c50a5/ch569/Work/riscv-none-elf-gcc-12.2.0-1/linux-arm64/sources/gcc-12.2.0/libgcc/libgcc2.c:1057
	      d0 = d0 << bm;
    34ae:	00b61733          	sll	a4,a2,a1
/media/maddocks/0e5c8f59-b86e-4423-a28c-b3830408c50a5/ch569/Work/riscv-none-elf-gcc-12.2.0-1/linux-arm64/sources/gcc-12.2.0/libgcc/libgcc2.c:1058
	      n1 = (n1 << bm) | (n0 >> (W_TYPE_SIZE - bm));
    34b2:	8fd5                	or	a5,a5,a3
/media/maddocks/0e5c8f59-b86e-4423-a28c-b3830408c50a5/ch569/Work/riscv-none-elf-gcc-12.2.0-1/linux-arm64/sources/gcc-12.2.0/libgcc/libgcc2.c:1059
	      n0 = n0 << bm;
    34b4:	00b89833          	sll	a6,a7,a1
/media/maddocks/0e5c8f59-b86e-4423-a28c-b3830408c50a5/ch569/Work/riscv-none-elf-gcc-12.2.0-1/linux-arm64/sources/gcc-12.2.0/libgcc/libgcc2.c:1062
	  udiv_qrnnd (q0, n0, n1, n0, d0);
    34b8:	01075593          	srli	a1,a4,0x10
    34bc:	02b7d333          	divu	t1,a5,a1
    34c0:	01071613          	slli	a2,a4,0x10
    34c4:	8241                	srli	a2,a2,0x10
    34c6:	02b7f7b3          	remu	a5,a5,a1
    34ca:	851a                	mv	a0,t1
    34cc:	026608b3          	mul	a7,a2,t1
    34d0:	01079693          	slli	a3,a5,0x10
    34d4:	01085793          	srli	a5,a6,0x10
    34d8:	8fd5                	or	a5,a5,a3
    34da:	0117fc63          	bgeu	a5,a7,34f2 <__udivdi3+0x8e>
    34de:	97ba                	add	a5,a5,a4
    34e0:	fff30513          	addi	a0,t1,-1
    34e4:	00e7e763          	bltu	a5,a4,34f2 <__udivdi3+0x8e>
    34e8:	0117f563          	bgeu	a5,a7,34f2 <__udivdi3+0x8e>
    34ec:	ffe30513          	addi	a0,t1,-2
    34f0:	97ba                	add	a5,a5,a4
    34f2:	411787b3          	sub	a5,a5,a7
    34f6:	02b7d8b3          	divu	a7,a5,a1
    34fa:	0842                	slli	a6,a6,0x10
    34fc:	01085813          	srli	a6,a6,0x10
    3500:	02b7f7b3          	remu	a5,a5,a1
    3504:	031606b3          	mul	a3,a2,a7
    3508:	07c2                	slli	a5,a5,0x10
    350a:	00f86833          	or	a6,a6,a5
    350e:	87c6                	mv	a5,a7
    3510:	00d87b63          	bgeu	a6,a3,3526 <__udivdi3+0xc2>
    3514:	983a                	add	a6,a6,a4
    3516:	fff88793          	addi	a5,a7,-1
    351a:	00e86663          	bltu	a6,a4,3526 <__udivdi3+0xc2>
    351e:	00d87463          	bgeu	a6,a3,3526 <__udivdi3+0xc2>
    3522:	ffe88793          	addi	a5,a7,-2
    3526:	0542                	slli	a0,a0,0x10
    3528:	8d5d                	or	a0,a0,a5
/media/maddocks/0e5c8f59-b86e-4423-a28c-b3830408c50a5/ch569/Work/riscv-none-elf-gcc-12.2.0-1/linux-arm64/sources/gcc-12.2.0/libgcc/libgcc2.c:1189
	      q1 = 0;
    352a:	4581                	li	a1,0
__udivdi3():
/media/maddocks/0e5c8f59-b86e-4423-a28c-b3830408c50a5/ch569/Work/riscv-none-elf-gcc-12.2.0-1/linux-arm64/sources/gcc-12.2.0/libgcc/libgcc2.c:1301
  return __udivmoddi4 (n, d, (UDWtype *) 0);
}
    352c:	8082                	ret
__udivmoddi4():
/media/maddocks/0e5c8f59-b86e-4423-a28c-b3830408c50a5/ch569/Work/riscv-none-elf-gcc-12.2.0-1/linux-arm64/sources/gcc-12.2.0/libgcc/libgcc2.c:1050
	  count_leading_zeros (bm, d0);
    352e:	01000537          	lui	a0,0x1000
    3532:	46c1                	li	a3,16
    3534:	f4a66de3          	bltu	a2,a0,348e <__udivdi3+0x2a>
    3538:	46e1                	li	a3,24
    353a:	bf91                	j	348e <__udivdi3+0x2a>
/media/maddocks/0e5c8f59-b86e-4423-a28c-b3830408c50a5/ch569/Work/riscv-none-elf-gcc-12.2.0-1/linux-arm64/sources/gcc-12.2.0/libgcc/libgcc2.c:1074
	  count_leading_zeros (bm, d0);
    353c:	4681                	li	a3,0
/media/maddocks/0e5c8f59-b86e-4423-a28c-b3830408c50a5/ch569/Work/riscv-none-elf-gcc-12.2.0-1/linux-arm64/sources/gcc-12.2.0/libgcc/libgcc2.c:1071
	  if (d0 == 0)
    353e:	ca09                	beqz	a2,3550 <__udivdi3+0xec>
/media/maddocks/0e5c8f59-b86e-4423-a28c-b3830408c50a5/ch569/Work/riscv-none-elf-gcc-12.2.0-1/linux-arm64/sources/gcc-12.2.0/libgcc/libgcc2.c:1074
	  count_leading_zeros (bm, d0);
    3540:	67c1                	lui	a5,0x10
    3542:	08f67f63          	bgeu	a2,a5,35e0 <__udivdi3+0x17c>
    3546:	10063693          	sltiu	a3,a2,256
    354a:	0016c693          	xori	a3,a3,1
    354e:	068e                	slli	a3,a3,0x3
    3550:	00d657b3          	srl	a5,a2,a3
    3554:	95be                	add	a1,a1,a5
    3556:	0005c783          	lbu	a5,0(a1)
    355a:	97b6                	add	a5,a5,a3
    355c:	02000693          	li	a3,32
    3560:	40f685b3          	sub	a1,a3,a5
/media/maddocks/0e5c8f59-b86e-4423-a28c-b3830408c50a5/ch569/Work/riscv-none-elf-gcc-12.2.0-1/linux-arm64/sources/gcc-12.2.0/libgcc/libgcc2.c:1076
	  if (bm == 0)
    3564:	08f69563          	bne	a3,a5,35ee <__udivdi3+0x18a>
/media/maddocks/0e5c8f59-b86e-4423-a28c-b3830408c50a5/ch569/Work/riscv-none-elf-gcc-12.2.0-1/linux-arm64/sources/gcc-12.2.0/libgcc/libgcc2.c:1085
	      n1 -= d0;
    3568:	40c307b3          	sub	a5,t1,a2
/media/maddocks/0e5c8f59-b86e-4423-a28c-b3830408c50a5/ch569/Work/riscv-none-elf-gcc-12.2.0-1/linux-arm64/sources/gcc-12.2.0/libgcc/libgcc2.c:1086
	      q1 = 1;
    356c:	4585                	li	a1,1
/media/maddocks/0e5c8f59-b86e-4423-a28c-b3830408c50a5/ch569/Work/riscv-none-elf-gcc-12.2.0-1/linux-arm64/sources/gcc-12.2.0/libgcc/libgcc2.c:1104
	  udiv_qrnnd (q0, n0, n1, n0, d0);
    356e:	01075893          	srli	a7,a4,0x10
    3572:	0317de33          	divu	t3,a5,a7
    3576:	01071613          	slli	a2,a4,0x10
    357a:	8241                	srli	a2,a2,0x10
    357c:	01085693          	srli	a3,a6,0x10
    3580:	0317f7b3          	remu	a5,a5,a7
    3584:	8572                	mv	a0,t3
    3586:	03c60333          	mul	t1,a2,t3
    358a:	07c2                	slli	a5,a5,0x10
    358c:	8fd5                	or	a5,a5,a3
    358e:	0067fc63          	bgeu	a5,t1,35a6 <__udivdi3+0x142>
    3592:	97ba                	add	a5,a5,a4
    3594:	fffe0513          	addi	a0,t3,-1
    3598:	00e7e763          	bltu	a5,a4,35a6 <__udivdi3+0x142>
    359c:	0067f563          	bgeu	a5,t1,35a6 <__udivdi3+0x142>
    35a0:	ffee0513          	addi	a0,t3,-2
    35a4:	97ba                	add	a5,a5,a4
    35a6:	406787b3          	sub	a5,a5,t1
    35aa:	0317d333          	divu	t1,a5,a7
    35ae:	0842                	slli	a6,a6,0x10
    35b0:	01085813          	srli	a6,a6,0x10
    35b4:	0317f7b3          	remu	a5,a5,a7
    35b8:	026606b3          	mul	a3,a2,t1
    35bc:	07c2                	slli	a5,a5,0x10
    35be:	00f86833          	or	a6,a6,a5
    35c2:	879a                	mv	a5,t1
    35c4:	00d87b63          	bgeu	a6,a3,35da <__udivdi3+0x176>
    35c8:	983a                	add	a6,a6,a4
    35ca:	fff30793          	addi	a5,t1,-1
    35ce:	00e86663          	bltu	a6,a4,35da <__udivdi3+0x176>
    35d2:	00d87463          	bgeu	a6,a3,35da <__udivdi3+0x176>
    35d6:	ffe30793          	addi	a5,t1,-2
    35da:	0542                	slli	a0,a0,0x10
    35dc:	8d5d                	or	a0,a0,a5
    35de:	8082                	ret
/media/maddocks/0e5c8f59-b86e-4423-a28c-b3830408c50a5/ch569/Work/riscv-none-elf-gcc-12.2.0-1/linux-arm64/sources/gcc-12.2.0/libgcc/libgcc2.c:1074
	  count_leading_zeros (bm, d0);
    35e0:	010007b7          	lui	a5,0x1000
    35e4:	46c1                	li	a3,16
    35e6:	f6f665e3          	bltu	a2,a5,3550 <__udivdi3+0xec>
    35ea:	46e1                	li	a3,24
    35ec:	b795                	j	3550 <__udivdi3+0xec>
/media/maddocks/0e5c8f59-b86e-4423-a28c-b3830408c50a5/ch569/Work/riscv-none-elf-gcc-12.2.0-1/linux-arm64/sources/gcc-12.2.0/libgcc/libgcc2.c:1094
	      d0 = d0 << bm;
    35ee:	00b61733          	sll	a4,a2,a1
/media/maddocks/0e5c8f59-b86e-4423-a28c-b3830408c50a5/ch569/Work/riscv-none-elf-gcc-12.2.0-1/linux-arm64/sources/gcc-12.2.0/libgcc/libgcc2.c:1095
	      n2 = n1 >> b;
    35f2:	00f356b3          	srl	a3,t1,a5
/media/maddocks/0e5c8f59-b86e-4423-a28c-b3830408c50a5/ch569/Work/riscv-none-elf-gcc-12.2.0-1/linux-arm64/sources/gcc-12.2.0/libgcc/libgcc2.c:1099
	      udiv_qrnnd (q1, n1, n2, n1, d0);
    35f6:	01075513          	srli	a0,a4,0x10
/media/maddocks/0e5c8f59-b86e-4423-a28c-b3830408c50a5/ch569/Work/riscv-none-elf-gcc-12.2.0-1/linux-arm64/sources/gcc-12.2.0/libgcc/libgcc2.c:1096
	      n1 = (n1 << bm) | (n0 >> b);
    35fa:	00b31333          	sll	t1,t1,a1
    35fe:	00f8d7b3          	srl	a5,a7,a5
    3602:	0067e7b3          	or	a5,a5,t1
/media/maddocks/0e5c8f59-b86e-4423-a28c-b3830408c50a5/ch569/Work/riscv-none-elf-gcc-12.2.0-1/linux-arm64/sources/gcc-12.2.0/libgcc/libgcc2.c:1099
	      udiv_qrnnd (q1, n1, n2, n1, d0);
    3606:	02a6d333          	divu	t1,a3,a0
    360a:	01071613          	slli	a2,a4,0x10
    360e:	8241                	srli	a2,a2,0x10
/media/maddocks/0e5c8f59-b86e-4423-a28c-b3830408c50a5/ch569/Work/riscv-none-elf-gcc-12.2.0-1/linux-arm64/sources/gcc-12.2.0/libgcc/libgcc2.c:1097
	      n0 = n0 << bm;
    3610:	00b89833          	sll	a6,a7,a1
/media/maddocks/0e5c8f59-b86e-4423-a28c-b3830408c50a5/ch569/Work/riscv-none-elf-gcc-12.2.0-1/linux-arm64/sources/gcc-12.2.0/libgcc/libgcc2.c:1099
	      udiv_qrnnd (q1, n1, n2, n1, d0);
    3614:	02a6f6b3          	remu	a3,a3,a0
    3618:	026608b3          	mul	a7,a2,t1
    361c:	01069593          	slli	a1,a3,0x10
    3620:	0107d693          	srli	a3,a5,0x10
    3624:	8ecd                	or	a3,a3,a1
    3626:	859a                	mv	a1,t1
    3628:	0116fc63          	bgeu	a3,a7,3640 <__udivdi3+0x1dc>
    362c:	96ba                	add	a3,a3,a4
    362e:	fff30593          	addi	a1,t1,-1
    3632:	00e6e763          	bltu	a3,a4,3640 <__udivdi3+0x1dc>
    3636:	0116f563          	bgeu	a3,a7,3640 <__udivdi3+0x1dc>
    363a:	ffe30593          	addi	a1,t1,-2
    363e:	96ba                	add	a3,a3,a4
    3640:	411686b3          	sub	a3,a3,a7
    3644:	02a6d8b3          	divu	a7,a3,a0
    3648:	07c2                	slli	a5,a5,0x10
    364a:	83c1                	srli	a5,a5,0x10
    364c:	02a6f6b3          	remu	a3,a3,a0
    3650:	03160633          	mul	a2,a2,a7
    3654:	06c2                	slli	a3,a3,0x10
    3656:	8fd5                	or	a5,a5,a3
    3658:	86c6                	mv	a3,a7
    365a:	00c7fc63          	bgeu	a5,a2,3672 <__udivdi3+0x20e>
    365e:	97ba                	add	a5,a5,a4
    3660:	fff88693          	addi	a3,a7,-1
    3664:	00e7e763          	bltu	a5,a4,3672 <__udivdi3+0x20e>
    3668:	00c7f563          	bgeu	a5,a2,3672 <__udivdi3+0x20e>
    366c:	ffe88693          	addi	a3,a7,-2
    3670:	97ba                	add	a5,a5,a4
    3672:	05c2                	slli	a1,a1,0x10
    3674:	8f91                	sub	a5,a5,a2
    3676:	8dd5                	or	a1,a1,a3
    3678:	bddd                	j	356e <__udivdi3+0x10a>
/media/maddocks/0e5c8f59-b86e-4423-a28c-b3830408c50a5/ch569/Work/riscv-none-elf-gcc-12.2.0-1/linux-arm64/sources/gcc-12.2.0/libgcc/libgcc2.c:1120
      if (d1 > n1)
    367a:	14d5e163          	bltu	a1,a3,37bc <__udivdi3+0x358>
/media/maddocks/0e5c8f59-b86e-4423-a28c-b3830408c50a5/ch569/Work/riscv-none-elf-gcc-12.2.0-1/linux-arm64/sources/gcc-12.2.0/libgcc/libgcc2.c:1139
	  count_leading_zeros (bm, d1);
    367e:	67c1                	lui	a5,0x10
    3680:	02f6ff63          	bgeu	a3,a5,36be <__udivdi3+0x25a>
    3684:	1006b713          	sltiu	a4,a3,256
    3688:	00174713          	xori	a4,a4,1
    368c:	070e                	slli	a4,a4,0x3
    368e:	00e6d5b3          	srl	a1,a3,a4
    3692:	00002797          	auipc	a5,0x2
    3696:	01a78793          	addi	a5,a5,26 # 56ac <__clz_tab>
    369a:	97ae                	add	a5,a5,a1
    369c:	0007c783          	lbu	a5,0(a5)
    36a0:	97ba                	add	a5,a5,a4
    36a2:	02000713          	li	a4,32
    36a6:	40f705b3          	sub	a1,a4,a5
/media/maddocks/0e5c8f59-b86e-4423-a28c-b3830408c50a5/ch569/Work/riscv-none-elf-gcc-12.2.0-1/linux-arm64/sources/gcc-12.2.0/libgcc/libgcc2.c:1140
	  if (bm == 0)
    36aa:	02f71163          	bne	a4,a5,36cc <__udivdi3+0x268>
/media/maddocks/0e5c8f59-b86e-4423-a28c-b3830408c50a5/ch569/Work/riscv-none-elf-gcc-12.2.0-1/linux-arm64/sources/gcc-12.2.0/libgcc/libgcc2.c:1152
		  q0 = 1;
    36ae:	4505                	li	a0,1
/media/maddocks/0e5c8f59-b86e-4423-a28c-b3830408c50a5/ch569/Work/riscv-none-elf-gcc-12.2.0-1/linux-arm64/sources/gcc-12.2.0/libgcc/libgcc2.c:1150
	      if (n1 > d1 || n0 >= d0)
    36b0:	e666eee3          	bltu	a3,t1,352c <__udivdi3+0xc8>
    36b4:	00c8b533          	sltu	a0,a7,a2
    36b8:	00154513          	xori	a0,a0,1
    36bc:	8082                	ret
/media/maddocks/0e5c8f59-b86e-4423-a28c-b3830408c50a5/ch569/Work/riscv-none-elf-gcc-12.2.0-1/linux-arm64/sources/gcc-12.2.0/libgcc/libgcc2.c:1139
	  count_leading_zeros (bm, d1);
    36be:	010007b7          	lui	a5,0x1000
    36c2:	4741                	li	a4,16
    36c4:	fcf6e5e3          	bltu	a3,a5,368e <__udivdi3+0x22a>
    36c8:	4761                	li	a4,24
    36ca:	b7d1                	j	368e <__udivdi3+0x22a>
/media/maddocks/0e5c8f59-b86e-4423-a28c-b3830408c50a5/ch569/Work/riscv-none-elf-gcc-12.2.0-1/linux-arm64/sources/gcc-12.2.0/libgcc/libgcc2.c:1174
	      d1 = (d1 << bm) | (d0 >> b);
    36cc:	00f65733          	srl	a4,a2,a5
    36d0:	00b696b3          	sll	a3,a3,a1
    36d4:	8ed9                	or	a3,a3,a4
/media/maddocks/0e5c8f59-b86e-4423-a28c-b3830408c50a5/ch569/Work/riscv-none-elf-gcc-12.2.0-1/linux-arm64/sources/gcc-12.2.0/libgcc/libgcc2.c:1176
	      n2 = n1 >> b;
    36d6:	00f35733          	srl	a4,t1,a5
/media/maddocks/0e5c8f59-b86e-4423-a28c-b3830408c50a5/ch569/Work/riscv-none-elf-gcc-12.2.0-1/linux-arm64/sources/gcc-12.2.0/libgcc/libgcc2.c:1177
	      n1 = (n1 << bm) | (n0 >> b);
    36da:	00b31333          	sll	t1,t1,a1
    36de:	00f8d7b3          	srl	a5,a7,a5
    36e2:	0067e7b3          	or	a5,a5,t1
/media/maddocks/0e5c8f59-b86e-4423-a28c-b3830408c50a5/ch569/Work/riscv-none-elf-gcc-12.2.0-1/linux-arm64/sources/gcc-12.2.0/libgcc/libgcc2.c:1180
	      udiv_qrnnd (q0, n1, n2, n1, d1);
    36e6:	0106d313          	srli	t1,a3,0x10
    36ea:	02675eb3          	divu	t4,a4,t1
    36ee:	01069813          	slli	a6,a3,0x10
    36f2:	01085813          	srli	a6,a6,0x10
/media/maddocks/0e5c8f59-b86e-4423-a28c-b3830408c50a5/ch569/Work/riscv-none-elf-gcc-12.2.0-1/linux-arm64/sources/gcc-12.2.0/libgcc/libgcc2.c:1175
	      d0 = d0 << bm;
    36f6:	00b61633          	sll	a2,a2,a1
/media/maddocks/0e5c8f59-b86e-4423-a28c-b3830408c50a5/ch569/Work/riscv-none-elf-gcc-12.2.0-1/linux-arm64/sources/gcc-12.2.0/libgcc/libgcc2.c:1180
	      udiv_qrnnd (q0, n1, n2, n1, d1);
    36fa:	02677733          	remu	a4,a4,t1
    36fe:	03d80e33          	mul	t3,a6,t4
    3702:	01071513          	slli	a0,a4,0x10
    3706:	0107d713          	srli	a4,a5,0x10
    370a:	8f49                	or	a4,a4,a0
    370c:	8576                	mv	a0,t4
    370e:	01c77c63          	bgeu	a4,t3,3726 <__udivdi3+0x2c2>
    3712:	9736                	add	a4,a4,a3
    3714:	fffe8513          	addi	a0,t4,-1
    3718:	00d76763          	bltu	a4,a3,3726 <__udivdi3+0x2c2>
    371c:	01c77563          	bgeu	a4,t3,3726 <__udivdi3+0x2c2>
    3720:	ffee8513          	addi	a0,t4,-2
    3724:	9736                	add	a4,a4,a3
    3726:	41c70733          	sub	a4,a4,t3
    372a:	02675e33          	divu	t3,a4,t1
    372e:	07c2                	slli	a5,a5,0x10
    3730:	83c1                	srli	a5,a5,0x10
    3732:	02677733          	remu	a4,a4,t1
    3736:	03c80833          	mul	a6,a6,t3
    373a:	0742                	slli	a4,a4,0x10
    373c:	8fd9                	or	a5,a5,a4
    373e:	8772                	mv	a4,t3
    3740:	0107fc63          	bgeu	a5,a6,3758 <__udivdi3+0x2f4>
    3744:	97b6                	add	a5,a5,a3
    3746:	fffe0713          	addi	a4,t3,-1
    374a:	00d7e763          	bltu	a5,a3,3758 <__udivdi3+0x2f4>
    374e:	0107f563          	bgeu	a5,a6,3758 <__udivdi3+0x2f4>
    3752:	ffee0713          	addi	a4,t3,-2
    3756:	97b6                	add	a5,a5,a3
    3758:	0542                	slli	a0,a0,0x10
/media/maddocks/0e5c8f59-b86e-4423-a28c-b3830408c50a5/ch569/Work/riscv-none-elf-gcc-12.2.0-1/linux-arm64/sources/gcc-12.2.0/libgcc/libgcc2.c:1181
	      umul_ppmm (m1, m0, q0, d0);
    375a:	6e41                	lui	t3,0x10
/media/maddocks/0e5c8f59-b86e-4423-a28c-b3830408c50a5/ch569/Work/riscv-none-elf-gcc-12.2.0-1/linux-arm64/sources/gcc-12.2.0/libgcc/libgcc2.c:1180
	      udiv_qrnnd (q0, n1, n2, n1, d1);
    375c:	8d59                	or	a0,a0,a4
/media/maddocks/0e5c8f59-b86e-4423-a28c-b3830408c50a5/ch569/Work/riscv-none-elf-gcc-12.2.0-1/linux-arm64/sources/gcc-12.2.0/libgcc/libgcc2.c:1181
	      umul_ppmm (m1, m0, q0, d0);
    375e:	fffe0693          	addi	a3,t3,-1 # ffff <_data_lma+0xa75f>
    3762:	00d57733          	and	a4,a0,a3
/media/maddocks/0e5c8f59-b86e-4423-a28c-b3830408c50a5/ch569/Work/riscv-none-elf-gcc-12.2.0-1/linux-arm64/sources/gcc-12.2.0/libgcc/libgcc2.c:1180
	      udiv_qrnnd (q0, n1, n2, n1, d1);
    3766:	410787b3          	sub	a5,a5,a6
/media/maddocks/0e5c8f59-b86e-4423-a28c-b3830408c50a5/ch569/Work/riscv-none-elf-gcc-12.2.0-1/linux-arm64/sources/gcc-12.2.0/libgcc/libgcc2.c:1181
	      umul_ppmm (m1, m0, q0, d0);
    376a:	8ef1                	and	a3,a3,a2
    376c:	01055813          	srli	a6,a0,0x10
    3770:	8241                	srli	a2,a2,0x10
    3772:	02d70333          	mul	t1,a4,a3
    3776:	02d806b3          	mul	a3,a6,a3
    377a:	02c70733          	mul	a4,a4,a2
    377e:	02c80833          	mul	a6,a6,a2
    3782:	00d70633          	add	a2,a4,a3
    3786:	01035713          	srli	a4,t1,0x10
    378a:	9732                	add	a4,a4,a2
    378c:	00d77363          	bgeu	a4,a3,3792 <__udivdi3+0x32e>
    3790:	9872                	add	a6,a6,t3
    3792:	01075693          	srli	a3,a4,0x10
    3796:	96c2                	add	a3,a3,a6
/media/maddocks/0e5c8f59-b86e-4423-a28c-b3830408c50a5/ch569/Work/riscv-none-elf-gcc-12.2.0-1/linux-arm64/sources/gcc-12.2.0/libgcc/libgcc2.c:1183
	      if (m1 > n1 || (m1 == n1 && m0 > n0))
    3798:	02d7e063          	bltu	a5,a3,37b8 <__udivdi3+0x354>
    379c:	d8d797e3          	bne	a5,a3,352a <__udivdi3+0xc6>
/media/maddocks/0e5c8f59-b86e-4423-a28c-b3830408c50a5/ch569/Work/riscv-none-elf-gcc-12.2.0-1/linux-arm64/sources/gcc-12.2.0/libgcc/libgcc2.c:1181
	      umul_ppmm (m1, m0, q0, d0);
    37a0:	67c1                	lui	a5,0x10
    37a2:	17fd                	addi	a5,a5,-1 # ffff <_data_lma+0xa75f>
    37a4:	8f7d                	and	a4,a4,a5
    37a6:	0742                	slli	a4,a4,0x10
    37a8:	00f37333          	and	t1,t1,a5
/media/maddocks/0e5c8f59-b86e-4423-a28c-b3830408c50a5/ch569/Work/riscv-none-elf-gcc-12.2.0-1/linux-arm64/sources/gcc-12.2.0/libgcc/libgcc2.c:1178
	      n0 = n0 << bm;
    37ac:	00b898b3          	sll	a7,a7,a1
/media/maddocks/0e5c8f59-b86e-4423-a28c-b3830408c50a5/ch569/Work/riscv-none-elf-gcc-12.2.0-1/linux-arm64/sources/gcc-12.2.0/libgcc/libgcc2.c:1181
	      umul_ppmm (m1, m0, q0, d0);
    37b0:	971a                	add	a4,a4,t1
/media/maddocks/0e5c8f59-b86e-4423-a28c-b3830408c50a5/ch569/Work/riscv-none-elf-gcc-12.2.0-1/linux-arm64/sources/gcc-12.2.0/libgcc/libgcc2.c:1189
	      q1 = 0;
    37b2:	4581                	li	a1,0
/media/maddocks/0e5c8f59-b86e-4423-a28c-b3830408c50a5/ch569/Work/riscv-none-elf-gcc-12.2.0-1/linux-arm64/sources/gcc-12.2.0/libgcc/libgcc2.c:1183
	      if (m1 > n1 || (m1 == n1 && m0 > n0))
    37b4:	d6e8fce3          	bgeu	a7,a4,352c <__udivdi3+0xc8>
/media/maddocks/0e5c8f59-b86e-4423-a28c-b3830408c50a5/ch569/Work/riscv-none-elf-gcc-12.2.0-1/linux-arm64/sources/gcc-12.2.0/libgcc/libgcc2.c:1185
		  q0--;
    37b8:	157d                	addi	a0,a0,-1 # ffffff <_data_lma+0xffa75f>
/media/maddocks/0e5c8f59-b86e-4423-a28c-b3830408c50a5/ch569/Work/riscv-none-elf-gcc-12.2.0-1/linux-arm64/sources/gcc-12.2.0/libgcc/libgcc2.c:1186
		  sub_ddmmss (m1, m0, m1, m0, d1, d0);
    37ba:	bb85                	j	352a <__udivdi3+0xc6>
/media/maddocks/0e5c8f59-b86e-4423-a28c-b3830408c50a5/ch569/Work/riscv-none-elf-gcc-12.2.0-1/linux-arm64/sources/gcc-12.2.0/libgcc/libgcc2.c:1125
	  q1 = 0;
    37bc:	4581                	li	a1,0
/media/maddocks/0e5c8f59-b86e-4423-a28c-b3830408c50a5/ch569/Work/riscv-none-elf-gcc-12.2.0-1/linux-arm64/sources/gcc-12.2.0/libgcc/libgcc2.c:1124
	  q0 = 0;
    37be:	4501                	li	a0,0
    37c0:	8082                	ret

000037c2 <__errno>:
__errno():
    37c2:	8101a503          	lw	a0,-2032(gp) # 20000328 <_impure_ptr>
    37c6:	8082                	ret

000037c8 <_free_r>:
_free_r():
    37c8:	c1c5                	beqz	a1,3868 <_free_r+0xa0>
    37ca:	ffc5a783          	lw	a5,-4(a1)
    37ce:	1101                	addi	sp,sp,-32
    37d0:	cc22                	sw	s0,24(sp)
    37d2:	ce06                	sw	ra,28(sp)
    37d4:	ffc58413          	addi	s0,a1,-4
    37d8:	0007d363          	bgez	a5,37de <_free_r+0x16>
    37dc:	943e                	add	s0,s0,a5
    37de:	c62a                	sw	a0,12(sp)
    37e0:	361000ef          	jal	ra,4340 <__malloc_lock>
    37e4:	89418713          	addi	a4,gp,-1900 # 200003ac <__malloc_free_list>
    37e8:	431c                	lw	a5,0(a4)
    37ea:	4532                	lw	a0,12(sp)
    37ec:	eb89                	bnez	a5,37fe <_free_r+0x36>
    37ee:	00042223          	sw	zero,4(s0)
    37f2:	c300                	sw	s0,0(a4)
    37f4:	4462                	lw	s0,24(sp)
    37f6:	40f2                	lw	ra,28(sp)
    37f8:	6105                	addi	sp,sp,32
    37fa:	34d0006f          	j	4346 <__malloc_unlock>
    37fe:	00f47d63          	bgeu	s0,a5,3818 <_free_r+0x50>
    3802:	4010                	lw	a2,0(s0)
    3804:	00c406b3          	add	a3,s0,a2
    3808:	00d79663          	bne	a5,a3,3814 <_free_r+0x4c>
    380c:	4394                	lw	a3,0(a5)
    380e:	43dc                	lw	a5,4(a5)
    3810:	96b2                	add	a3,a3,a2
    3812:	c014                	sw	a3,0(s0)
    3814:	c05c                	sw	a5,4(s0)
    3816:	bff1                	j	37f2 <_free_r+0x2a>
    3818:	873e                	mv	a4,a5
    381a:	43dc                	lw	a5,4(a5)
    381c:	c399                	beqz	a5,3822 <_free_r+0x5a>
    381e:	fef47de3          	bgeu	s0,a5,3818 <_free_r+0x50>
    3822:	4314                	lw	a3,0(a4)
    3824:	00d70633          	add	a2,a4,a3
    3828:	00861f63          	bne	a2,s0,3846 <_free_r+0x7e>
    382c:	4010                	lw	a2,0(s0)
    382e:	96b2                	add	a3,a3,a2
    3830:	c314                	sw	a3,0(a4)
    3832:	00d70633          	add	a2,a4,a3
    3836:	fac79fe3          	bne	a5,a2,37f4 <_free_r+0x2c>
    383a:	4390                	lw	a2,0(a5)
    383c:	43dc                	lw	a5,4(a5)
    383e:	96b2                	add	a3,a3,a2
    3840:	c314                	sw	a3,0(a4)
    3842:	c35c                	sw	a5,4(a4)
    3844:	bf45                	j	37f4 <_free_r+0x2c>
    3846:	00c47563          	bgeu	s0,a2,3850 <_free_r+0x88>
    384a:	47b1                	li	a5,12
    384c:	c11c                	sw	a5,0(a0)
    384e:	b75d                	j	37f4 <_free_r+0x2c>
    3850:	4010                	lw	a2,0(s0)
    3852:	00c406b3          	add	a3,s0,a2
    3856:	00d79663          	bne	a5,a3,3862 <_free_r+0x9a>
    385a:	4394                	lw	a3,0(a5)
    385c:	43dc                	lw	a5,4(a5)
    385e:	96b2                	add	a3,a3,a2
    3860:	c014                	sw	a3,0(s0)
    3862:	c05c                	sw	a5,4(s0)
    3864:	c340                	sw	s0,4(a4)
    3866:	b779                	j	37f4 <_free_r+0x2c>
    3868:	8082                	ret

0000386a <sbrk_aligned>:
sbrk_aligned():
    386a:	1141                	addi	sp,sp,-16
    386c:	c04a                	sw	s2,0(sp)
    386e:	89018913          	addi	s2,gp,-1904 # 200003a8 <__malloc_sbrk_start>
    3872:	00092783          	lw	a5,0(s2)
    3876:	c422                	sw	s0,8(sp)
    3878:	c226                	sw	s1,4(sp)
    387a:	c606                	sw	ra,12(sp)
    387c:	84aa                	mv	s1,a0
    387e:	842e                	mv	s0,a1
    3880:	e789                	bnez	a5,388a <sbrk_aligned+0x20>
    3882:	4581                	li	a1,0
    3884:	2c71                	jal	3b20 <_sbrk_r>
    3886:	00a92023          	sw	a0,0(s2)
    388a:	85a2                	mv	a1,s0
    388c:	8526                	mv	a0,s1
    388e:	2c49                	jal	3b20 <_sbrk_r>
    3890:	597d                	li	s2,-1
    3892:	01251a63          	bne	a0,s2,38a6 <sbrk_aligned+0x3c>
    3896:	547d                	li	s0,-1
    3898:	40b2                	lw	ra,12(sp)
    389a:	8522                	mv	a0,s0
    389c:	4422                	lw	s0,8(sp)
    389e:	4492                	lw	s1,4(sp)
    38a0:	4902                	lw	s2,0(sp)
    38a2:	0141                	addi	sp,sp,16
    38a4:	8082                	ret
    38a6:	00350413          	addi	s0,a0,3
    38aa:	9871                	andi	s0,s0,-4
    38ac:	fe8506e3          	beq	a0,s0,3898 <sbrk_aligned+0x2e>
    38b0:	40a405b3          	sub	a1,s0,a0
    38b4:	8526                	mv	a0,s1
    38b6:	24ad                	jal	3b20 <_sbrk_r>
    38b8:	ff2510e3          	bne	a0,s2,3898 <sbrk_aligned+0x2e>
    38bc:	bfe9                	j	3896 <sbrk_aligned+0x2c>

000038be <_malloc_r>:
_malloc_r():
    38be:	1101                	addi	sp,sp,-32
    38c0:	ca26                	sw	s1,20(sp)
    38c2:	00358493          	addi	s1,a1,3
    38c6:	98f1                	andi	s1,s1,-4
    38c8:	c84a                	sw	s2,16(sp)
    38ca:	ce06                	sw	ra,28(sp)
    38cc:	cc22                	sw	s0,24(sp)
    38ce:	c64e                	sw	s3,12(sp)
    38d0:	04a1                	addi	s1,s1,8
    38d2:	47b1                	li	a5,12
    38d4:	892a                	mv	s2,a0
    38d6:	06f4f463          	bgeu	s1,a5,393e <_malloc_r+0x80>
    38da:	44b1                	li	s1,12
    38dc:	06b4e363          	bltu	s1,a1,3942 <_malloc_r+0x84>
    38e0:	854a                	mv	a0,s2
    38e2:	25f000ef          	jal	ra,4340 <__malloc_lock>
    38e6:	89418993          	addi	s3,gp,-1900 # 200003ac <__malloc_free_list>
    38ea:	0009a783          	lw	a5,0(s3)
    38ee:	843e                	mv	s0,a5
    38f0:	e425                	bnez	s0,3958 <_malloc_r+0x9a>
    38f2:	85a6                	mv	a1,s1
    38f4:	854a                	mv	a0,s2
    38f6:	3f95                	jal	386a <sbrk_aligned>
    38f8:	57fd                	li	a5,-1
    38fa:	842a                	mv	s0,a0
    38fc:	0cf51663          	bne	a0,a5,39c8 <_malloc_r+0x10a>
    3900:	0009a403          	lw	s0,0(s3)
    3904:	87a2                	mv	a5,s0
    3906:	e7dd                	bnez	a5,39b4 <_malloc_r+0xf6>
    3908:	00042983          	lw	s3,0(s0)
    390c:	4581                	li	a1,0
    390e:	854a                	mv	a0,s2
    3910:	99a2                	add	s3,s3,s0
    3912:	2439                	jal	3b20 <_sbrk_r>
    3914:	0aa99363          	bne	s3,a0,39ba <_malloc_r+0xfc>
    3918:	401c                	lw	a5,0(s0)
    391a:	048d                	addi	s1,s1,3
    391c:	8c9d                	sub	s1,s1,a5
    391e:	98f1                	andi	s1,s1,-4
    3920:	04a1                	addi	s1,s1,8
    3922:	47b1                	li	a5,12
    3924:	00f4f363          	bgeu	s1,a5,392a <_malloc_r+0x6c>
    3928:	44b1                	li	s1,12
    392a:	85a6                	mv	a1,s1
    392c:	854a                	mv	a0,s2
    392e:	3f35                	jal	386a <sbrk_aligned>
    3930:	57fd                	li	a5,-1
    3932:	08f50463          	beq	a0,a5,39ba <_malloc_r+0xfc>
    3936:	401c                	lw	a5,0(s0)
    3938:	97a6                	add	a5,a5,s1
    393a:	c01c                	sw	a5,0(s0)
    393c:	a83d                	j	397a <_malloc_r+0xbc>
    393e:	f804dfe3          	bgez	s1,38dc <_malloc_r+0x1e>
    3942:	47b1                	li	a5,12
    3944:	00f92023          	sw	a5,0(s2)
    3948:	4501                	li	a0,0
    394a:	40f2                	lw	ra,28(sp)
    394c:	4462                	lw	s0,24(sp)
    394e:	44d2                	lw	s1,20(sp)
    3950:	4942                	lw	s2,16(sp)
    3952:	49b2                	lw	s3,12(sp)
    3954:	6105                	addi	sp,sp,32
    3956:	8082                	ret
    3958:	4014                	lw	a3,0(s0)
    395a:	8e85                	sub	a3,a3,s1
    395c:	0406c963          	bltz	a3,39ae <_malloc_r+0xf0>
    3960:	472d                	li	a4,11
    3962:	02d77e63          	bgeu	a4,a3,399e <_malloc_r+0xe0>
    3966:	c004                	sw	s1,0(s0)
    3968:	00940733          	add	a4,s0,s1
    396c:	02879763          	bne	a5,s0,399a <_malloc_r+0xdc>
    3970:	00e9a023          	sw	a4,0(s3)
    3974:	405c                	lw	a5,4(s0)
    3976:	c314                	sw	a3,0(a4)
    3978:	c35c                	sw	a5,4(a4)
    397a:	854a                	mv	a0,s2
    397c:	1cb000ef          	jal	ra,4346 <__malloc_unlock>
    3980:	00b40513          	addi	a0,s0,11
    3984:	00440793          	addi	a5,s0,4
    3988:	9961                	andi	a0,a0,-8
    398a:	40f50733          	sub	a4,a0,a5
    398e:	faf50ee3          	beq	a0,a5,394a <_malloc_r+0x8c>
    3992:	943a                	add	s0,s0,a4
    3994:	8f89                	sub	a5,a5,a0
    3996:	c01c                	sw	a5,0(s0)
    3998:	bf4d                	j	394a <_malloc_r+0x8c>
    399a:	c3d8                	sw	a4,4(a5)
    399c:	bfe1                	j	3974 <_malloc_r+0xb6>
    399e:	4058                	lw	a4,4(s0)
    39a0:	00879563          	bne	a5,s0,39aa <_malloc_r+0xec>
    39a4:	00e9a023          	sw	a4,0(s3)
    39a8:	bfc9                	j	397a <_malloc_r+0xbc>
    39aa:	c3d8                	sw	a4,4(a5)
    39ac:	b7f9                	j	397a <_malloc_r+0xbc>
    39ae:	87a2                	mv	a5,s0
    39b0:	4040                	lw	s0,4(s0)
    39b2:	bf3d                	j	38f0 <_malloc_r+0x32>
    39b4:	843e                	mv	s0,a5
    39b6:	43dc                	lw	a5,4(a5)
    39b8:	b7b9                	j	3906 <_malloc_r+0x48>
    39ba:	47b1                	li	a5,12
    39bc:	00f92023          	sw	a5,0(s2)
    39c0:	854a                	mv	a0,s2
    39c2:	185000ef          	jal	ra,4346 <__malloc_unlock>
    39c6:	b749                	j	3948 <_malloc_r+0x8a>
    39c8:	c104                	sw	s1,0(a0)
    39ca:	bf45                	j	397a <_malloc_r+0xbc>

000039cc <iprintf>:
printf():
    39cc:	715d                	addi	sp,sp,-80
    39ce:	d422                	sw	s0,40(sp)
    39d0:	d606                	sw	ra,44(sp)
    39d2:	842a                	mv	s0,a0
    39d4:	da2e                	sw	a1,52(sp)
    39d6:	dc32                	sw	a2,56(sp)
    39d8:	de36                	sw	a3,60(sp)
    39da:	c0ba                	sw	a4,64(sp)
    39dc:	c2be                	sw	a5,68(sp)
    39de:	c4c2                	sw	a6,72(sp)
    39e0:	c6c6                	sw	a7,76(sp)
    39e2:	8101a503          	lw	a0,-2032(gp) # 20000328 <_impure_ptr>
    39e6:	c511                	beqz	a0,39f2 <iprintf+0x26>
    39e8:	4d1c                	lw	a5,24(a0)
    39ea:	e781                	bnez	a5,39f2 <iprintf+0x26>
    39ec:	c62a                	sw	a0,12(sp)
    39ee:	2dc9                	jal	40c0 <__sinit>
    39f0:	4532                	lw	a0,12(sp)
    39f2:	450c                	lw	a1,8(a0)
    39f4:	1854                	addi	a3,sp,52
    39f6:	8622                	mv	a2,s0
    39f8:	ce36                	sw	a3,28(sp)
    39fa:	0b2010ef          	jal	ra,4aac <_vfiprintf_r>
    39fe:	50b2                	lw	ra,44(sp)
    3a00:	5422                	lw	s0,40(sp)
    3a02:	6161                	addi	sp,sp,80
    3a04:	8082                	ret

00003a06 <_puts_r>:
_puts_r():
    3a06:	1101                	addi	sp,sp,-32
    3a08:	ca26                	sw	s1,20(sp)
    3a0a:	ce06                	sw	ra,28(sp)
    3a0c:	cc22                	sw	s0,24(sp)
    3a0e:	c84a                	sw	s2,16(sp)
    3a10:	c64e                	sw	s3,12(sp)
    3a12:	c452                	sw	s4,8(sp)
    3a14:	84aa                	mv	s1,a0
    3a16:	e119                	bnez	a0,3a1c <_puts_r+0x16>
    3a18:	451c                	lw	a5,8(a0)
    3a1a:	9002                	ebreak
    3a1c:	4d1c                	lw	a5,24(a0)
    3a1e:	892e                	mv	s2,a1
    3a20:	e7b5                	bnez	a5,3a8c <_puts_r+0x86>
    3a22:	2d79                	jal	40c0 <__sinit>
    3a24:	4c9c                	lw	a5,24(s1)
    3a26:	4480                	lw	s0,8(s1)
    3a28:	c7a5                	beqz	a5,3a90 <_puts_r+0x8a>
    3a2a:	00002797          	auipc	a5,0x2
    3a2e:	dc278793          	addi	a5,a5,-574 # 57ec <__sf_fake_stdin>
    3a32:	06f41263          	bne	s0,a5,3a96 <_puts_r+0x90>
    3a36:	40c0                	lw	s0,4(s1)
    3a38:	507c                	lw	a5,100(s0)
    3a3a:	8b85                	andi	a5,a5,1
    3a3c:	eb89                	bnez	a5,3a4e <_puts_r+0x48>
    3a3e:	00c45783          	lhu	a5,12(s0)
    3a42:	2007f793          	andi	a5,a5,512
    3a46:	e781                	bnez	a5,3a4e <_puts_r+0x48>
    3a48:	4c28                	lw	a0,88(s0)
    3a4a:	7f0000ef          	jal	ra,423a <__retarget_lock_acquire_recursive>
    3a4e:	00c45783          	lhu	a5,12(s0)
    3a52:	8ba1                	andi	a5,a5,8
    3a54:	c399                	beqz	a5,3a5a <_puts_r+0x54>
    3a56:	481c                	lw	a5,16(s0)
    3a58:	e7cd                	bnez	a5,3b02 <_puts_r+0xfc>
    3a5a:	85a2                	mv	a1,s0
    3a5c:	8526                	mv	a0,s1
    3a5e:	2cc1                	jal	3d2e <__swsetup_r>
    3a60:	c14d                	beqz	a0,3b02 <_puts_r+0xfc>
    3a62:	54fd                	li	s1,-1
    3a64:	507c                	lw	a5,100(s0)
    3a66:	8b85                	andi	a5,a5,1
    3a68:	eb89                	bnez	a5,3a7a <_puts_r+0x74>
    3a6a:	00c45783          	lhu	a5,12(s0)
    3a6e:	2007f793          	andi	a5,a5,512
    3a72:	e781                	bnez	a5,3a7a <_puts_r+0x74>
    3a74:	4c28                	lw	a0,88(s0)
    3a76:	7c6000ef          	jal	ra,423c <__retarget_lock_release_recursive>
    3a7a:	40f2                	lw	ra,28(sp)
    3a7c:	4462                	lw	s0,24(sp)
    3a7e:	4942                	lw	s2,16(sp)
    3a80:	49b2                	lw	s3,12(sp)
    3a82:	4a22                	lw	s4,8(sp)
    3a84:	8526                	mv	a0,s1
    3a86:	44d2                	lw	s1,20(sp)
    3a88:	6105                	addi	sp,sp,32
    3a8a:	8082                	ret
    3a8c:	4500                	lw	s0,8(a0)
    3a8e:	bf71                	j	3a2a <_puts_r+0x24>
    3a90:	8526                	mv	a0,s1
    3a92:	253d                	jal	40c0 <__sinit>
    3a94:	bf59                	j	3a2a <_puts_r+0x24>
    3a96:	00002797          	auipc	a5,0x2
    3a9a:	d3678793          	addi	a5,a5,-714 # 57cc <__sf_fake_stdout>
    3a9e:	00f41463          	bne	s0,a5,3aa6 <_puts_r+0xa0>
    3aa2:	4480                	lw	s0,8(s1)
    3aa4:	bf51                	j	3a38 <_puts_r+0x32>
    3aa6:	00002797          	auipc	a5,0x2
    3aaa:	d0678793          	addi	a5,a5,-762 # 57ac <__sf_fake_stderr>
    3aae:	f8f415e3          	bne	s0,a5,3a38 <_puts_r+0x32>
    3ab2:	44c0                	lw	s0,12(s1)
    3ab4:	b751                	j	3a38 <_puts_r+0x32>
    3ab6:	c41c                	sw	a5,8(s0)
    3ab8:	0905                	addi	s2,s2,1
    3aba:	0207c963          	bltz	a5,3aec <_puts_r+0xe6>
    3abe:	401c                	lw	a5,0(s0)
    3ac0:	00178713          	addi	a4,a5,1
    3ac4:	c018                	sw	a4,0(s0)
    3ac6:	00b78023          	sb	a1,0(a5)
    3aca:	441c                	lw	a5,8(s0)
    3acc:	00094583          	lbu	a1,0(s2)
    3ad0:	17fd                	addi	a5,a5,-1
    3ad2:	f1f5                	bnez	a1,3ab6 <_puts_r+0xb0>
    3ad4:	c41c                	sw	a5,8(s0)
    3ad6:	0207d963          	bgez	a5,3b08 <_puts_r+0x102>
    3ada:	8622                	mv	a2,s0
    3adc:	45a9                	li	a1,10
    3ade:	8526                	mv	a0,s1
    3ae0:	2279                	jal	3c6e <__swbuf_r>
    3ae2:	57fd                	li	a5,-1
    3ae4:	f6f50fe3          	beq	a0,a5,3a62 <_puts_r+0x5c>
    3ae8:	44a9                	li	s1,10
    3aea:	bfad                	j	3a64 <_puts_r+0x5e>
    3aec:	4c18                	lw	a4,24(s0)
    3aee:	00e7c463          	blt	a5,a4,3af6 <_puts_r+0xf0>
    3af2:	fd4596e3          	bne	a1,s4,3abe <_puts_r+0xb8>
    3af6:	8622                	mv	a2,s0
    3af8:	8526                	mv	a0,s1
    3afa:	2a95                	jal	3c6e <__swbuf_r>
    3afc:	fd3517e3          	bne	a0,s3,3aca <_puts_r+0xc4>
    3b00:	b78d                	j	3a62 <_puts_r+0x5c>
    3b02:	59fd                	li	s3,-1
    3b04:	4a29                	li	s4,10
    3b06:	b7d1                	j	3aca <_puts_r+0xc4>
    3b08:	401c                	lw	a5,0(s0)
    3b0a:	00178713          	addi	a4,a5,1
    3b0e:	c018                	sw	a4,0(s0)
    3b10:	4729                	li	a4,10
    3b12:	00e78023          	sb	a4,0(a5)
    3b16:	bfc9                	j	3ae8 <_puts_r+0xe2>

00003b18 <puts>:
puts():
    3b18:	85aa                	mv	a1,a0
    3b1a:	8101a503          	lw	a0,-2032(gp) # 20000328 <_impure_ptr>
    3b1e:	b5e5                	j	3a06 <_puts_r>

00003b20 <_sbrk_r>:
_sbrk_r():
    3b20:	1141                	addi	sp,sp,-16
    3b22:	c422                	sw	s0,8(sp)
    3b24:	842a                	mv	s0,a0
    3b26:	852e                	mv	a0,a1
    3b28:	8a01a223          	sw	zero,-1884(gp) # 200003bc <errno>
    3b2c:	c606                	sw	ra,12(sp)
    3b2e:	584010ef          	jal	ra,50b2 <_sbrk>
    3b32:	57fd                	li	a5,-1
    3b34:	00f51663          	bne	a0,a5,3b40 <_sbrk_r+0x20>
    3b38:	8a41a783          	lw	a5,-1884(gp) # 200003bc <errno>
    3b3c:	c391                	beqz	a5,3b40 <_sbrk_r+0x20>
    3b3e:	c01c                	sw	a5,0(s0)
    3b40:	40b2                	lw	ra,12(sp)
    3b42:	4422                	lw	s0,8(sp)
    3b44:	0141                	addi	sp,sp,16
    3b46:	8082                	ret

00003b48 <sniprintf>:
snprintf():
    3b48:	7135                	addi	sp,sp,-160
    3b4a:	daa6                	sw	s1,116(sp)
    3b4c:	de86                	sw	ra,124(sp)
    3b4e:	dca2                	sw	s0,120(sp)
    3b50:	d8ca                	sw	s2,112(sp)
    3b52:	c736                	sw	a3,140(sp)
    3b54:	c93a                	sw	a4,144(sp)
    3b56:	cb3e                	sw	a5,148(sp)
    3b58:	cd42                	sw	a6,152(sp)
    3b5a:	cf46                	sw	a7,156(sp)
    3b5c:	8101a483          	lw	s1,-2032(gp) # 20000328 <_impure_ptr>
    3b60:	0005dc63          	bgez	a1,3b78 <sniprintf+0x30>
    3b64:	08b00793          	li	a5,139
    3b68:	c09c                	sw	a5,0(s1)
    3b6a:	557d                	li	a0,-1
    3b6c:	50f6                	lw	ra,124(sp)
    3b6e:	5466                	lw	s0,120(sp)
    3b70:	54d6                	lw	s1,116(sp)
    3b72:	5946                	lw	s2,112(sp)
    3b74:	610d                	addi	sp,sp,160
    3b76:	8082                	ret
    3b78:	20800793          	li	a5,520
    3b7c:	00f11a23          	sh	a5,20(sp)
    3b80:	c42a                	sw	a0,8(sp)
    3b82:	cc2a                	sw	a0,24(sp)
    3b84:	842e                	mv	s0,a1
    3b86:	4781                	li	a5,0
    3b88:	c199                	beqz	a1,3b8e <sniprintf+0x46>
    3b8a:	fff58793          	addi	a5,a1,-1
    3b8e:	597d                	li	s2,-1
    3b90:	0174                	addi	a3,sp,140
    3b92:	002c                	addi	a1,sp,8
    3b94:	8526                	mv	a0,s1
    3b96:	c83e                	sw	a5,16(sp)
    3b98:	ce3e                	sw	a5,28(sp)
    3b9a:	01211b23          	sh	s2,22(sp)
    3b9e:	c236                	sw	a3,4(sp)
    3ba0:	099000ef          	jal	ra,4438 <_svfiprintf_r>
    3ba4:	01255563          	bge	a0,s2,3bae <sniprintf+0x66>
    3ba8:	08b00793          	li	a5,139
    3bac:	c09c                	sw	a5,0(s1)
    3bae:	dc5d                	beqz	s0,3b6c <sniprintf+0x24>
    3bb0:	47a2                	lw	a5,8(sp)
    3bb2:	00078023          	sb	zero,0(a5)
    3bb6:	bf5d                	j	3b6c <sniprintf+0x24>

00003bb8 <siprintf>:
sprintf():
    3bb8:	7135                	addi	sp,sp,-160
    3bba:	cb3e                	sw	a5,148(sp)
    3bbc:	800007b7          	lui	a5,0x80000
    3bc0:	fff7c793          	not	a5,a5
    3bc4:	ce3e                	sw	a5,28(sp)
    3bc6:	c83e                	sw	a5,16(sp)
    3bc8:	77c1                	lui	a5,0xffff0
    3bca:	c532                	sw	a2,136(sp)
    3bcc:	c736                	sw	a3,140(sp)
    3bce:	c42a                	sw	a0,8(sp)
    3bd0:	cc2a                	sw	a0,24(sp)
    3bd2:	20878793          	addi	a5,a5,520 # ffff0208 <_dmadata_end+0xdffcce08>
    3bd6:	0134                	addi	a3,sp,136
    3bd8:	862e                	mv	a2,a1
    3bda:	8101a503          	lw	a0,-2032(gp) # 20000328 <_impure_ptr>
    3bde:	002c                	addi	a1,sp,8
    3be0:	de86                	sw	ra,124(sp)
    3be2:	ca3e                	sw	a5,20(sp)
    3be4:	c93a                	sw	a4,144(sp)
    3be6:	cd42                	sw	a6,152(sp)
    3be8:	cf46                	sw	a7,156(sp)
    3bea:	c236                	sw	a3,4(sp)
    3bec:	04d000ef          	jal	ra,4438 <_svfiprintf_r>
    3bf0:	47a2                	lw	a5,8(sp)
    3bf2:	00078023          	sb	zero,0(a5)
    3bf6:	50f6                	lw	ra,124(sp)
    3bf8:	610d                	addi	sp,sp,160
    3bfa:	8082                	ret

00003bfc <_vsniprintf_r>:
_vsnprintf_r():
    3bfc:	7119                	addi	sp,sp,-128
    3bfe:	dca2                	sw	s0,120(sp)
    3c00:	daa6                	sw	s1,116(sp)
    3c02:	de86                	sw	ra,124(sp)
    3c04:	d8ca                	sw	s2,112(sp)
    3c06:	84aa                	mv	s1,a0
    3c08:	8432                	mv	s0,a2
    3c0a:	00065c63          	bgez	a2,3c22 <_vsniprintf_r+0x26>
    3c0e:	08b00793          	li	a5,139
    3c12:	c11c                	sw	a5,0(a0)
    3c14:	557d                	li	a0,-1
    3c16:	50f6                	lw	ra,124(sp)
    3c18:	5466                	lw	s0,120(sp)
    3c1a:	54d6                	lw	s1,116(sp)
    3c1c:	5946                	lw	s2,112(sp)
    3c1e:	6109                	addi	sp,sp,128
    3c20:	8082                	ret
    3c22:	20800793          	li	a5,520
    3c26:	00f11a23          	sh	a5,20(sp)
    3c2a:	c42e                	sw	a1,8(sp)
    3c2c:	cc2e                	sw	a1,24(sp)
    3c2e:	8636                	mv	a2,a3
    3c30:	4781                	li	a5,0
    3c32:	86ba                	mv	a3,a4
    3c34:	c019                	beqz	s0,3c3a <_vsniprintf_r+0x3e>
    3c36:	fff40793          	addi	a5,s0,-1
    3c3a:	597d                	li	s2,-1
    3c3c:	002c                	addi	a1,sp,8
    3c3e:	8526                	mv	a0,s1
    3c40:	c83e                	sw	a5,16(sp)
    3c42:	ce3e                	sw	a5,28(sp)
    3c44:	01211b23          	sh	s2,22(sp)
    3c48:	7f0000ef          	jal	ra,4438 <_svfiprintf_r>
    3c4c:	01255563          	bge	a0,s2,3c56 <_vsniprintf_r+0x5a>
    3c50:	08b00793          	li	a5,139
    3c54:	c09c                	sw	a5,0(s1)
    3c56:	d061                	beqz	s0,3c16 <_vsniprintf_r+0x1a>
    3c58:	47a2                	lw	a5,8(sp)
    3c5a:	00078023          	sb	zero,0(a5)
    3c5e:	bf65                	j	3c16 <_vsniprintf_r+0x1a>

00003c60 <vsniprintf>:
vsnprintf():
    3c60:	8736                	mv	a4,a3
    3c62:	86b2                	mv	a3,a2
    3c64:	862e                	mv	a2,a1
    3c66:	85aa                	mv	a1,a0
    3c68:	8101a503          	lw	a0,-2032(gp) # 20000328 <_impure_ptr>
    3c6c:	bf41                	j	3bfc <_vsniprintf_r>

00003c6e <__swbuf_r>:
__swbuf_r():
    3c6e:	1101                	addi	sp,sp,-32
    3c70:	cc22                	sw	s0,24(sp)
    3c72:	ca26                	sw	s1,20(sp)
    3c74:	c84a                	sw	s2,16(sp)
    3c76:	ce06                	sw	ra,28(sp)
    3c78:	c64e                	sw	s3,12(sp)
    3c7a:	84aa                	mv	s1,a0
    3c7c:	892e                	mv	s2,a1
    3c7e:	8432                	mv	s0,a2
    3c80:	c501                	beqz	a0,3c88 <__swbuf_r+0x1a>
    3c82:	4d1c                	lw	a5,24(a0)
    3c84:	e391                	bnez	a5,3c88 <__swbuf_r+0x1a>
    3c86:	292d                	jal	40c0 <__sinit>
    3c88:	00002797          	auipc	a5,0x2
    3c8c:	b6478793          	addi	a5,a5,-1180 # 57ec <__sf_fake_stdin>
    3c90:	02f41863          	bne	s0,a5,3cc0 <__swbuf_r+0x52>
    3c94:	40c0                	lw	s0,4(s1)
    3c96:	4c1c                	lw	a5,24(s0)
    3c98:	c41c                	sw	a5,8(s0)
    3c9a:	00c45783          	lhu	a5,12(s0)
    3c9e:	8ba1                	andi	a5,a5,8
    3ca0:	c399                	beqz	a5,3ca6 <__swbuf_r+0x38>
    3ca2:	481c                	lw	a5,16(s0)
    3ca4:	ef95                	bnez	a5,3ce0 <__swbuf_r+0x72>
    3ca6:	85a2                	mv	a1,s0
    3ca8:	8526                	mv	a0,s1
    3caa:	2051                	jal	3d2e <__swsetup_r>
    3cac:	c915                	beqz	a0,3ce0 <__swbuf_r+0x72>
    3cae:	597d                	li	s2,-1
    3cb0:	40f2                	lw	ra,28(sp)
    3cb2:	4462                	lw	s0,24(sp)
    3cb4:	44d2                	lw	s1,20(sp)
    3cb6:	49b2                	lw	s3,12(sp)
    3cb8:	854a                	mv	a0,s2
    3cba:	4942                	lw	s2,16(sp)
    3cbc:	6105                	addi	sp,sp,32
    3cbe:	8082                	ret
    3cc0:	00002797          	auipc	a5,0x2
    3cc4:	b0c78793          	addi	a5,a5,-1268 # 57cc <__sf_fake_stdout>
    3cc8:	00f41463          	bne	s0,a5,3cd0 <__swbuf_r+0x62>
    3ccc:	4480                	lw	s0,8(s1)
    3cce:	b7e1                	j	3c96 <__swbuf_r+0x28>
    3cd0:	00002797          	auipc	a5,0x2
    3cd4:	adc78793          	addi	a5,a5,-1316 # 57ac <__sf_fake_stderr>
    3cd8:	faf41fe3          	bne	s0,a5,3c96 <__swbuf_r+0x28>
    3cdc:	44c0                	lw	s0,12(s1)
    3cde:	bf65                	j	3c96 <__swbuf_r+0x28>
    3ce0:	481c                	lw	a5,16(s0)
    3ce2:	4008                	lw	a0,0(s0)
    3ce4:	0ff97993          	zext.b	s3,s2
    3ce8:	0ff97913          	zext.b	s2,s2
    3cec:	8d1d                	sub	a0,a0,a5
    3cee:	485c                	lw	a5,20(s0)
    3cf0:	00f54663          	blt	a0,a5,3cfc <__swbuf_r+0x8e>
    3cf4:	85a2                	mv	a1,s0
    3cf6:	8526                	mv	a0,s1
    3cf8:	24b5                	jal	3f64 <_fflush_r>
    3cfa:	f955                	bnez	a0,3cae <__swbuf_r+0x40>
    3cfc:	441c                	lw	a5,8(s0)
    3cfe:	0505                	addi	a0,a0,1
    3d00:	17fd                	addi	a5,a5,-1
    3d02:	c41c                	sw	a5,8(s0)
    3d04:	401c                	lw	a5,0(s0)
    3d06:	00178713          	addi	a4,a5,1
    3d0a:	c018                	sw	a4,0(s0)
    3d0c:	01378023          	sb	s3,0(a5)
    3d10:	485c                	lw	a5,20(s0)
    3d12:	00a78963          	beq	a5,a0,3d24 <__swbuf_r+0xb6>
    3d16:	00c45783          	lhu	a5,12(s0)
    3d1a:	8b85                	andi	a5,a5,1
    3d1c:	dbd1                	beqz	a5,3cb0 <__swbuf_r+0x42>
    3d1e:	47a9                	li	a5,10
    3d20:	f8f918e3          	bne	s2,a5,3cb0 <__swbuf_r+0x42>
    3d24:	85a2                	mv	a1,s0
    3d26:	8526                	mv	a0,s1
    3d28:	2c35                	jal	3f64 <_fflush_r>
    3d2a:	d159                	beqz	a0,3cb0 <__swbuf_r+0x42>
    3d2c:	b749                	j	3cae <__swbuf_r+0x40>

00003d2e <__swsetup_r>:
__swsetup_r():
    3d2e:	1141                	addi	sp,sp,-16
    3d30:	c422                	sw	s0,8(sp)
    3d32:	c226                	sw	s1,4(sp)
    3d34:	c04a                	sw	s2,0(sp)
    3d36:	c606                	sw	ra,12(sp)
    3d38:	8101a483          	lw	s1,-2032(gp) # 20000328 <_impure_ptr>
    3d3c:	892a                	mv	s2,a0
    3d3e:	842e                	mv	s0,a1
    3d40:	c489                	beqz	s1,3d4a <__swsetup_r+0x1c>
    3d42:	4c9c                	lw	a5,24(s1)
    3d44:	e399                	bnez	a5,3d4a <__swsetup_r+0x1c>
    3d46:	8526                	mv	a0,s1
    3d48:	2ea5                	jal	40c0 <__sinit>
    3d4a:	00002797          	auipc	a5,0x2
    3d4e:	aa278793          	addi	a5,a5,-1374 # 57ec <__sf_fake_stdin>
    3d52:	02f41463          	bne	s0,a5,3d7a <__swsetup_r+0x4c>
    3d56:	40c0                	lw	s0,4(s1)
    3d58:	00c41783          	lh	a5,12(s0)
    3d5c:	0087f713          	andi	a4,a5,8
    3d60:	eb35                	bnez	a4,3dd4 <__swsetup_r+0xa6>
    3d62:	0107f713          	andi	a4,a5,16
    3d66:	eb15                	bnez	a4,3d9a <__swsetup_r+0x6c>
    3d68:	4725                	li	a4,9
    3d6a:	00e92023          	sw	a4,0(s2)
    3d6e:	0407e793          	ori	a5,a5,64
    3d72:	00f41623          	sh	a5,12(s0)
    3d76:	557d                	li	a0,-1
    3d78:	a861                	j	3e10 <__swsetup_r+0xe2>
    3d7a:	00002797          	auipc	a5,0x2
    3d7e:	a5278793          	addi	a5,a5,-1454 # 57cc <__sf_fake_stdout>
    3d82:	00f41463          	bne	s0,a5,3d8a <__swsetup_r+0x5c>
    3d86:	4480                	lw	s0,8(s1)
    3d88:	bfc1                	j	3d58 <__swsetup_r+0x2a>
    3d8a:	00002797          	auipc	a5,0x2
    3d8e:	a2278793          	addi	a5,a5,-1502 # 57ac <__sf_fake_stderr>
    3d92:	fcf413e3          	bne	s0,a5,3d58 <__swsetup_r+0x2a>
    3d96:	44c0                	lw	s0,12(s1)
    3d98:	b7c1                	j	3d58 <__swsetup_r+0x2a>
    3d9a:	8b91                	andi	a5,a5,4
    3d9c:	c795                	beqz	a5,3dc8 <__swsetup_r+0x9a>
    3d9e:	584c                	lw	a1,52(s0)
    3da0:	c991                	beqz	a1,3db4 <__swsetup_r+0x86>
    3da2:	04440793          	addi	a5,s0,68
    3da6:	00f58563          	beq	a1,a5,3db0 <__swsetup_r+0x82>
    3daa:	854a                	mv	a0,s2
    3dac:	a1dff0ef          	jal	ra,37c8 <_free_r>
    3db0:	02042a23          	sw	zero,52(s0)
    3db4:	00c45783          	lhu	a5,12(s0)
    3db8:	00042223          	sw	zero,4(s0)
    3dbc:	fdb7f793          	andi	a5,a5,-37
    3dc0:	00f41623          	sh	a5,12(s0)
    3dc4:	481c                	lw	a5,16(s0)
    3dc6:	c01c                	sw	a5,0(s0)
    3dc8:	00c45783          	lhu	a5,12(s0)
    3dcc:	0087e793          	ori	a5,a5,8
    3dd0:	00f41623          	sh	a5,12(s0)
    3dd4:	481c                	lw	a5,16(s0)
    3dd6:	ef81                	bnez	a5,3dee <__swsetup_r+0xc0>
    3dd8:	00c45783          	lhu	a5,12(s0)
    3ddc:	20000713          	li	a4,512
    3de0:	2807f793          	andi	a5,a5,640
    3de4:	00e78563          	beq	a5,a4,3dee <__swsetup_r+0xc0>
    3de8:	85a2                	mv	a1,s0
    3dea:	854a                	mv	a0,s2
    3dec:	217d                	jal	429a <__smakebuf_r>
    3dee:	00c41783          	lh	a5,12(s0)
    3df2:	0017f713          	andi	a4,a5,1
    3df6:	c31d                	beqz	a4,3e1c <__swsetup_r+0xee>
    3df8:	4858                	lw	a4,20(s0)
    3dfa:	00042423          	sw	zero,8(s0)
    3dfe:	40e00733          	neg	a4,a4
    3e02:	cc18                	sw	a4,24(s0)
    3e04:	4818                	lw	a4,16(s0)
    3e06:	4501                	li	a0,0
    3e08:	e701                	bnez	a4,3e10 <__swsetup_r+0xe2>
    3e0a:	0807f713          	andi	a4,a5,128
    3e0e:	f325                	bnez	a4,3d6e <__swsetup_r+0x40>
    3e10:	40b2                	lw	ra,12(sp)
    3e12:	4422                	lw	s0,8(sp)
    3e14:	4492                	lw	s1,4(sp)
    3e16:	4902                	lw	s2,0(sp)
    3e18:	0141                	addi	sp,sp,16
    3e1a:	8082                	ret
    3e1c:	0027f713          	andi	a4,a5,2
    3e20:	4681                	li	a3,0
    3e22:	e311                	bnez	a4,3e26 <__swsetup_r+0xf8>
    3e24:	4854                	lw	a3,20(s0)
    3e26:	c414                	sw	a3,8(s0)
    3e28:	bff1                	j	3e04 <__swsetup_r+0xd6>

00003e2a <__sflush_r>:
__sflush_r():
    3e2a:	00c59783          	lh	a5,12(a1)
    3e2e:	1101                	addi	sp,sp,-32
    3e30:	cc22                	sw	s0,24(sp)
    3e32:	ca26                	sw	s1,20(sp)
    3e34:	ce06                	sw	ra,28(sp)
    3e36:	c84a                	sw	s2,16(sp)
    3e38:	c64e                	sw	s3,12(sp)
    3e3a:	0087f713          	andi	a4,a5,8
    3e3e:	84aa                	mv	s1,a0
    3e40:	842e                	mv	s0,a1
    3e42:	e771                	bnez	a4,3f0e <__sflush_r+0xe4>
    3e44:	41d8                	lw	a4,4(a1)
    3e46:	00e04563          	bgtz	a4,3e50 <__sflush_r+0x26>
    3e4a:	41b8                	lw	a4,64(a1)
    3e4c:	08e05963          	blez	a4,3ede <__sflush_r+0xb4>
    3e50:	5458                	lw	a4,44(s0)
    3e52:	c751                	beqz	a4,3ede <__sflush_r+0xb4>
    3e54:	83b1                	srli	a5,a5,0xc
    3e56:	0004a903          	lw	s2,0(s1)
    3e5a:	8b85                	andi	a5,a5,1
    3e5c:	0004a023          	sw	zero,0(s1)
    3e60:	500c                	lw	a1,32(s0)
    3e62:	cfa1                	beqz	a5,3eba <__sflush_r+0x90>
    3e64:	4870                	lw	a2,84(s0)
    3e66:	00c45783          	lhu	a5,12(s0)
    3e6a:	8b91                	andi	a5,a5,4
    3e6c:	c799                	beqz	a5,3e7a <__sflush_r+0x50>
    3e6e:	405c                	lw	a5,4(s0)
    3e70:	8e1d                	sub	a2,a2,a5
    3e72:	585c                	lw	a5,52(s0)
    3e74:	c399                	beqz	a5,3e7a <__sflush_r+0x50>
    3e76:	403c                	lw	a5,64(s0)
    3e78:	8e1d                	sub	a2,a2,a5
    3e7a:	545c                	lw	a5,44(s0)
    3e7c:	500c                	lw	a1,32(s0)
    3e7e:	4681                	li	a3,0
    3e80:	8526                	mv	a0,s1
    3e82:	9782                	jalr	a5
    3e84:	57fd                	li	a5,-1
    3e86:	04f50e63          	beq	a0,a5,3ee2 <__sflush_r+0xb8>
    3e8a:	481c                	lw	a5,16(s0)
    3e8c:	6705                	lui	a4,0x1
    3e8e:	00042223          	sw	zero,4(s0)
    3e92:	c01c                	sw	a5,0(s0)
    3e94:	00c45783          	lhu	a5,12(s0)
    3e98:	8ff9                	and	a5,a5,a4
    3e9a:	c391                	beqz	a5,3e9e <__sflush_r+0x74>
    3e9c:	c868                	sw	a0,84(s0)
    3e9e:	584c                	lw	a1,52(s0)
    3ea0:	0124a023          	sw	s2,0(s1)
    3ea4:	cd8d                	beqz	a1,3ede <__sflush_r+0xb4>
    3ea6:	04440793          	addi	a5,s0,68
    3eaa:	00f58563          	beq	a1,a5,3eb4 <__sflush_r+0x8a>
    3eae:	8526                	mv	a0,s1
    3eb0:	919ff0ef          	jal	ra,37c8 <_free_r>
    3eb4:	02042a23          	sw	zero,52(s0)
    3eb8:	a01d                	j	3ede <__sflush_r+0xb4>
    3eba:	4601                	li	a2,0
    3ebc:	4685                	li	a3,1
    3ebe:	8526                	mv	a0,s1
    3ec0:	9702                	jalr	a4
    3ec2:	57fd                	li	a5,-1
    3ec4:	862a                	mv	a2,a0
    3ec6:	faf510e3          	bne	a0,a5,3e66 <__sflush_r+0x3c>
    3eca:	409c                	lw	a5,0(s1)
    3ecc:	dfc9                	beqz	a5,3e66 <__sflush_r+0x3c>
    3ece:	4775                	li	a4,29
    3ed0:	00e78563          	beq	a5,a4,3eda <__sflush_r+0xb0>
    3ed4:	4759                	li	a4,22
    3ed6:	06e79563          	bne	a5,a4,3f40 <__sflush_r+0x116>
    3eda:	0124a023          	sw	s2,0(s1)
    3ede:	4501                	li	a0,0
    3ee0:	a0bd                	j	3f4e <__sflush_r+0x124>
    3ee2:	4098                	lw	a4,0(s1)
    3ee4:	00c41783          	lh	a5,12(s0)
    3ee8:	cf01                	beqz	a4,3f00 <__sflush_r+0xd6>
    3eea:	46f5                	li	a3,29
    3eec:	00d70563          	beq	a4,a3,3ef6 <__sflush_r+0xcc>
    3ef0:	46d9                	li	a3,22
    3ef2:	04d71963          	bne	a4,a3,3f44 <__sflush_r+0x11a>
    3ef6:	481c                	lw	a5,16(s0)
    3ef8:	00042223          	sw	zero,4(s0)
    3efc:	c01c                	sw	a5,0(s0)
    3efe:	b745                	j	3e9e <__sflush_r+0x74>
    3f00:	4818                	lw	a4,16(s0)
    3f02:	83b1                	srli	a5,a5,0xc
    3f04:	00042223          	sw	zero,4(s0)
    3f08:	c018                	sw	a4,0(s0)
    3f0a:	8b85                	andi	a5,a5,1
    3f0c:	b779                	j	3e9a <__sflush_r+0x70>
    3f0e:	0105a983          	lw	s3,16(a1)
    3f12:	fc0986e3          	beqz	s3,3ede <__sflush_r+0xb4>
    3f16:	0005a903          	lw	s2,0(a1)
    3f1a:	8b8d                	andi	a5,a5,3
    3f1c:	0135a023          	sw	s3,0(a1)
    3f20:	41390933          	sub	s2,s2,s3
    3f24:	4701                	li	a4,0
    3f26:	e391                	bnez	a5,3f2a <__sflush_r+0x100>
    3f28:	49d8                	lw	a4,20(a1)
    3f2a:	c418                	sw	a4,8(s0)
    3f2c:	fb2059e3          	blez	s2,3ede <__sflush_r+0xb4>
    3f30:	541c                	lw	a5,40(s0)
    3f32:	500c                	lw	a1,32(s0)
    3f34:	86ca                	mv	a3,s2
    3f36:	864e                	mv	a2,s3
    3f38:	8526                	mv	a0,s1
    3f3a:	9782                	jalr	a5
    3f3c:	02a04063          	bgtz	a0,3f5c <__sflush_r+0x132>
    3f40:	00c41783          	lh	a5,12(s0)
    3f44:	0407e793          	ori	a5,a5,64
    3f48:	00f41623          	sh	a5,12(s0)
    3f4c:	557d                	li	a0,-1
    3f4e:	40f2                	lw	ra,28(sp)
    3f50:	4462                	lw	s0,24(sp)
    3f52:	44d2                	lw	s1,20(sp)
    3f54:	4942                	lw	s2,16(sp)
    3f56:	49b2                	lw	s3,12(sp)
    3f58:	6105                	addi	sp,sp,32
    3f5a:	8082                	ret
    3f5c:	99aa                	add	s3,s3,a0
    3f5e:	40a90933          	sub	s2,s2,a0
    3f62:	b7e9                	j	3f2c <__sflush_r+0x102>

00003f64 <_fflush_r>:
_fflush_r():
    3f64:	499c                	lw	a5,16(a1)
    3f66:	1141                	addi	sp,sp,-16
    3f68:	c606                	sw	ra,12(sp)
    3f6a:	c422                	sw	s0,8(sp)
    3f6c:	c226                	sw	s1,4(sp)
    3f6e:	eb81                	bnez	a5,3f7e <_fflush_r+0x1a>
    3f70:	4481                	li	s1,0
    3f72:	40b2                	lw	ra,12(sp)
    3f74:	4422                	lw	s0,8(sp)
    3f76:	8526                	mv	a0,s1
    3f78:	4492                	lw	s1,4(sp)
    3f7a:	0141                	addi	sp,sp,16
    3f7c:	8082                	ret
    3f7e:	84aa                	mv	s1,a0
    3f80:	842e                	mv	s0,a1
    3f82:	c501                	beqz	a0,3f8a <_fflush_r+0x26>
    3f84:	4d1c                	lw	a5,24(a0)
    3f86:	e391                	bnez	a5,3f8a <_fflush_r+0x26>
    3f88:	2a25                	jal	40c0 <__sinit>
    3f8a:	00002797          	auipc	a5,0x2
    3f8e:	86278793          	addi	a5,a5,-1950 # 57ec <__sf_fake_stdin>
    3f92:	02f41d63          	bne	s0,a5,3fcc <_fflush_r+0x68>
    3f96:	40c0                	lw	s0,4(s1)
    3f98:	00c41783          	lh	a5,12(s0)
    3f9c:	dbf1                	beqz	a5,3f70 <_fflush_r+0xc>
    3f9e:	5078                	lw	a4,100(s0)
    3fa0:	8b05                	andi	a4,a4,1
    3fa2:	e711                	bnez	a4,3fae <_fflush_r+0x4a>
    3fa4:	2007f793          	andi	a5,a5,512
    3fa8:	e399                	bnez	a5,3fae <_fflush_r+0x4a>
    3faa:	4c28                	lw	a0,88(s0)
    3fac:	2479                	jal	423a <__retarget_lock_acquire_recursive>
    3fae:	8526                	mv	a0,s1
    3fb0:	85a2                	mv	a1,s0
    3fb2:	3da5                	jal	3e2a <__sflush_r>
    3fb4:	507c                	lw	a5,100(s0)
    3fb6:	84aa                	mv	s1,a0
    3fb8:	8b85                	andi	a5,a5,1
    3fba:	ffc5                	bnez	a5,3f72 <_fflush_r+0xe>
    3fbc:	00c45783          	lhu	a5,12(s0)
    3fc0:	2007f793          	andi	a5,a5,512
    3fc4:	f7dd                	bnez	a5,3f72 <_fflush_r+0xe>
    3fc6:	4c28                	lw	a0,88(s0)
    3fc8:	2c95                	jal	423c <__retarget_lock_release_recursive>
    3fca:	b765                	j	3f72 <_fflush_r+0xe>
    3fcc:	00002797          	auipc	a5,0x2
    3fd0:	80078793          	addi	a5,a5,-2048 # 57cc <__sf_fake_stdout>
    3fd4:	00f41463          	bne	s0,a5,3fdc <_fflush_r+0x78>
    3fd8:	4480                	lw	s0,8(s1)
    3fda:	bf7d                	j	3f98 <_fflush_r+0x34>
    3fdc:	00001797          	auipc	a5,0x1
    3fe0:	7d078793          	addi	a5,a5,2000 # 57ac <__sf_fake_stderr>
    3fe4:	faf41ae3          	bne	s0,a5,3f98 <_fflush_r+0x34>
    3fe8:	44c0                	lw	s0,12(s1)
    3fea:	b77d                	j	3f98 <_fflush_r+0x34>

00003fec <std>:
std():
    3fec:	1141                	addi	sp,sp,-16
    3fee:	c422                	sw	s0,8(sp)
    3ff0:	c606                	sw	ra,12(sp)
    3ff2:	842a                	mv	s0,a0
    3ff4:	00b51623          	sh	a1,12(a0)
    3ff8:	00c51723          	sh	a2,14(a0)
    3ffc:	00052023          	sw	zero,0(a0)
    4000:	00052223          	sw	zero,4(a0)
    4004:	00052423          	sw	zero,8(a0)
    4008:	06052223          	sw	zero,100(a0)
    400c:	00052823          	sw	zero,16(a0)
    4010:	00052a23          	sw	zero,20(a0)
    4014:	00052c23          	sw	zero,24(a0)
    4018:	4621                	li	a2,8
    401a:	4581                	li	a1,0
    401c:	05c50513          	addi	a0,a0,92
    4020:	8b6fc0ef          	jal	ra,d6 <memset>
    4024:	00001797          	auipc	a5,0x1
    4028:	d6278793          	addi	a5,a5,-670 # 4d86 <__sread>
    402c:	d05c                	sw	a5,36(s0)
    402e:	00001797          	auipc	a5,0x1
    4032:	d8878793          	addi	a5,a5,-632 # 4db6 <__swrite>
    4036:	d41c                	sw	a5,40(s0)
    4038:	00001797          	auipc	a5,0x1
    403c:	dcc78793          	addi	a5,a5,-564 # 4e04 <__sseek>
    4040:	d45c                	sw	a5,44(s0)
    4042:	00001797          	auipc	a5,0x1
    4046:	df878793          	addi	a5,a5,-520 # 4e3a <__sclose>
    404a:	40b2                	lw	ra,12(sp)
    404c:	d000                	sw	s0,32(s0)
    404e:	d81c                	sw	a5,48(s0)
    4050:	4422                	lw	s0,8(sp)
    4052:	0141                	addi	sp,sp,16
    4054:	8082                	ret

00004056 <_cleanup_r>:
_cleanup_r():
    4056:	00000597          	auipc	a1,0x0
    405a:	f0e58593          	addi	a1,a1,-242 # 3f64 <_fflush_r>
    405e:	aa85                	j	41ce <_fwalk_reent>

00004060 <__sfmoreglue>:
__sfmoreglue():
    4060:	1141                	addi	sp,sp,-16
    4062:	c226                	sw	s1,4(sp)
    4064:	06800793          	li	a5,104
    4068:	fff58493          	addi	s1,a1,-1
    406c:	02f484b3          	mul	s1,s1,a5
    4070:	c04a                	sw	s2,0(sp)
    4072:	892e                	mv	s2,a1
    4074:	c422                	sw	s0,8(sp)
    4076:	c606                	sw	ra,12(sp)
    4078:	07448593          	addi	a1,s1,116
    407c:	843ff0ef          	jal	ra,38be <_malloc_r>
    4080:	842a                	mv	s0,a0
    4082:	cd01                	beqz	a0,409a <__sfmoreglue+0x3a>
    4084:	00052023          	sw	zero,0(a0)
    4088:	01252223          	sw	s2,4(a0)
    408c:	0531                	addi	a0,a0,12
    408e:	c408                	sw	a0,8(s0)
    4090:	06848613          	addi	a2,s1,104
    4094:	4581                	li	a1,0
    4096:	840fc0ef          	jal	ra,d6 <memset>
    409a:	40b2                	lw	ra,12(sp)
    409c:	8522                	mv	a0,s0
    409e:	4422                	lw	s0,8(sp)
    40a0:	4492                	lw	s1,4(sp)
    40a2:	4902                	lw	s2,0(sp)
    40a4:	0141                	addi	sp,sp,16
    40a6:	8082                	ret

000040a8 <__sfp_lock_acquire>:
__sfp_lock_acquire():
    40a8:	89c18513          	addi	a0,gp,-1892 # 200003b4 <__lock___sfp_recursive_mutex>
    40ac:	a279                	j	423a <__retarget_lock_acquire_recursive>

000040ae <__sfp_lock_release>:
__sfp_lock_release():
    40ae:	89c18513          	addi	a0,gp,-1892 # 200003b4 <__lock___sfp_recursive_mutex>
    40b2:	a269                	j	423c <__retarget_lock_release_recursive>

000040b4 <__sinit_lock_acquire>:
__sinit_lock_acquire():
    40b4:	8a018513          	addi	a0,gp,-1888 # 200003b8 <__lock___sinit_recursive_mutex>
    40b8:	a249                	j	423a <__retarget_lock_acquire_recursive>

000040ba <__sinit_lock_release>:
__sinit_lock_release():
    40ba:	8a018513          	addi	a0,gp,-1888 # 200003b8 <__lock___sinit_recursive_mutex>
    40be:	aabd                	j	423c <__retarget_lock_release_recursive>

000040c0 <__sinit>:
__sinit():
    40c0:	1141                	addi	sp,sp,-16
    40c2:	c422                	sw	s0,8(sp)
    40c4:	c606                	sw	ra,12(sp)
    40c6:	842a                	mv	s0,a0
    40c8:	37f5                	jal	40b4 <__sinit_lock_acquire>
    40ca:	4c1c                	lw	a5,24(s0)
    40cc:	c789                	beqz	a5,40d6 <__sinit+0x16>
    40ce:	4422                	lw	s0,8(sp)
    40d0:	40b2                	lw	ra,12(sp)
    40d2:	0141                	addi	sp,sp,16
    40d4:	b7dd                	j	40ba <__sinit_lock_release>
    40d6:	00000797          	auipc	a5,0x0
    40da:	f8078793          	addi	a5,a5,-128 # 4056 <_cleanup_r>
    40de:	d41c                	sw	a5,40(s0)
    40e0:	04042423          	sw	zero,72(s0)
    40e4:	04042623          	sw	zero,76(s0)
    40e8:	04042823          	sw	zero,80(s0)
    40ec:	8181a783          	lw	a5,-2024(gp) # 20000330 <_global_impure_ptr>
    40f0:	00879463          	bne	a5,s0,40f8 <__sinit+0x38>
    40f4:	4785                	li	a5,1
    40f6:	cc1c                	sw	a5,24(s0)
    40f8:	8522                	mv	a0,s0
    40fa:	203d                	jal	4128 <__sfp>
    40fc:	c048                	sw	a0,4(s0)
    40fe:	8522                	mv	a0,s0
    4100:	2025                	jal	4128 <__sfp>
    4102:	c408                	sw	a0,8(s0)
    4104:	8522                	mv	a0,s0
    4106:	200d                	jal	4128 <__sfp>
    4108:	c448                	sw	a0,12(s0)
    410a:	4048                	lw	a0,4(s0)
    410c:	4601                	li	a2,0
    410e:	4591                	li	a1,4
    4110:	3df1                	jal	3fec <std>
    4112:	4408                	lw	a0,8(s0)
    4114:	4605                	li	a2,1
    4116:	45a5                	li	a1,9
    4118:	3dd1                	jal	3fec <std>
    411a:	4448                	lw	a0,12(s0)
    411c:	4609                	li	a2,2
    411e:	45c9                	li	a1,18
    4120:	35f1                	jal	3fec <std>
    4122:	4785                	li	a5,1
    4124:	cc1c                	sw	a5,24(s0)
    4126:	b765                	j	40ce <__sinit+0xe>

00004128 <__sfp>:
__sfp():
    4128:	1141                	addi	sp,sp,-16
    412a:	c226                	sw	s1,4(sp)
    412c:	c04a                	sw	s2,0(sp)
    412e:	c606                	sw	ra,12(sp)
    4130:	c422                	sw	s0,8(sp)
    4132:	892a                	mv	s2,a0
    4134:	3f95                	jal	40a8 <__sfp_lock_acquire>
    4136:	8181a483          	lw	s1,-2024(gp) # 20000330 <_global_impure_ptr>
    413a:	4c9c                	lw	a5,24(s1)
    413c:	e399                	bnez	a5,4142 <__sfp+0x1a>
    413e:	8526                	mv	a0,s1
    4140:	3741                	jal	40c0 <__sinit>
    4142:	04848493          	addi	s1,s1,72
    4146:	4480                	lw	s0,8(s1)
    4148:	40dc                	lw	a5,4(s1)
    414a:	17fd                	addi	a5,a5,-1
    414c:	0007d663          	bgez	a5,4158 <__sfp+0x30>
    4150:	409c                	lw	a5,0(s1)
    4152:	c3bd                	beqz	a5,41b8 <__sfp+0x90>
    4154:	4084                	lw	s1,0(s1)
    4156:	bfc5                	j	4146 <__sfp+0x1e>
    4158:	00c41703          	lh	a4,12(s0)
    415c:	eb39                	bnez	a4,41b2 <__sfp+0x8a>
    415e:	77c1                	lui	a5,0xffff0
    4160:	0785                	addi	a5,a5,1 # ffff0001 <_dmadata_end+0xdffccc01>
    4162:	c45c                	sw	a5,12(s0)
    4164:	05840513          	addi	a0,s0,88
    4168:	06042223          	sw	zero,100(s0)
    416c:	20f1                	jal	4238 <__retarget_lock_init_recursive>
    416e:	3781                	jal	40ae <__sfp_lock_release>
    4170:	4621                	li	a2,8
    4172:	00042023          	sw	zero,0(s0)
    4176:	00042423          	sw	zero,8(s0)
    417a:	00042223          	sw	zero,4(s0)
    417e:	00042823          	sw	zero,16(s0)
    4182:	00042a23          	sw	zero,20(s0)
    4186:	00042c23          	sw	zero,24(s0)
    418a:	4581                	li	a1,0
    418c:	05c40513          	addi	a0,s0,92
    4190:	f47fb0ef          	jal	ra,d6 <memset>
    4194:	02042a23          	sw	zero,52(s0)
    4198:	02042c23          	sw	zero,56(s0)
    419c:	04042423          	sw	zero,72(s0)
    41a0:	04042623          	sw	zero,76(s0)
    41a4:	40b2                	lw	ra,12(sp)
    41a6:	8522                	mv	a0,s0
    41a8:	4422                	lw	s0,8(sp)
    41aa:	4492                	lw	s1,4(sp)
    41ac:	4902                	lw	s2,0(sp)
    41ae:	0141                	addi	sp,sp,16
    41b0:	8082                	ret
    41b2:	06840413          	addi	s0,s0,104
    41b6:	bf51                	j	414a <__sfp+0x22>
    41b8:	4591                	li	a1,4
    41ba:	854a                	mv	a0,s2
    41bc:	3555                	jal	4060 <__sfmoreglue>
    41be:	c088                	sw	a0,0(s1)
    41c0:	842a                	mv	s0,a0
    41c2:	f949                	bnez	a0,4154 <__sfp+0x2c>
    41c4:	35ed                	jal	40ae <__sfp_lock_release>
    41c6:	47b1                	li	a5,12
    41c8:	00f92023          	sw	a5,0(s2)
    41cc:	bfe1                	j	41a4 <__sfp+0x7c>

000041ce <_fwalk_reent>:
_fwalk_reent():
    41ce:	7179                	addi	sp,sp,-48
    41d0:	d422                	sw	s0,40(sp)
    41d2:	d04a                	sw	s2,32(sp)
    41d4:	ce4e                	sw	s3,28(sp)
    41d6:	cc52                	sw	s4,24(sp)
    41d8:	c85a                	sw	s6,16(sp)
    41da:	c65e                	sw	s7,12(sp)
    41dc:	d606                	sw	ra,44(sp)
    41de:	d226                	sw	s1,36(sp)
    41e0:	ca56                	sw	s5,20(sp)
    41e2:	892a                	mv	s2,a0
    41e4:	8a2e                	mv	s4,a1
    41e6:	04850413          	addi	s0,a0,72
    41ea:	4981                	li	s3,0
    41ec:	4b05                	li	s6,1
    41ee:	5bfd                	li	s7,-1
    41f0:	4404                	lw	s1,8(s0)
    41f2:	00442a83          	lw	s5,4(s0)
    41f6:	1afd                	addi	s5,s5,-1
    41f8:	020ad063          	bgez	s5,4218 <_fwalk_reent+0x4a>
    41fc:	4000                	lw	s0,0(s0)
    41fe:	f86d                	bnez	s0,41f0 <_fwalk_reent+0x22>
    4200:	50b2                	lw	ra,44(sp)
    4202:	5422                	lw	s0,40(sp)
    4204:	5492                	lw	s1,36(sp)
    4206:	5902                	lw	s2,32(sp)
    4208:	4a62                	lw	s4,24(sp)
    420a:	4ad2                	lw	s5,20(sp)
    420c:	4b42                	lw	s6,16(sp)
    420e:	4bb2                	lw	s7,12(sp)
    4210:	854e                	mv	a0,s3
    4212:	49f2                	lw	s3,28(sp)
    4214:	6145                	addi	sp,sp,48
    4216:	8082                	ret
    4218:	00c4d783          	lhu	a5,12(s1)
    421c:	00fb7b63          	bgeu	s6,a5,4232 <_fwalk_reent+0x64>
    4220:	00e49783          	lh	a5,14(s1)
    4224:	01778763          	beq	a5,s7,4232 <_fwalk_reent+0x64>
    4228:	85a6                	mv	a1,s1
    422a:	854a                	mv	a0,s2
    422c:	9a02                	jalr	s4
    422e:	00a9e9b3          	or	s3,s3,a0
    4232:	06848493          	addi	s1,s1,104
    4236:	b7c1                	j	41f6 <_fwalk_reent+0x28>

00004238 <__retarget_lock_init_recursive>:
__retarget_lock_init_recursive():
    4238:	8082                	ret

0000423a <__retarget_lock_acquire_recursive>:
__retarget_lock_acquire_recursive():
    423a:	8082                	ret

0000423c <__retarget_lock_release_recursive>:
__retarget_lock_release_recursive():
    423c:	8082                	ret

0000423e <__swhatbuf_r>:
__swhatbuf_r():
    423e:	7159                	addi	sp,sp,-112
    4240:	d4a2                	sw	s0,104(sp)
    4242:	842e                	mv	s0,a1
    4244:	00e59583          	lh	a1,14(a1)
    4248:	d2a6                	sw	s1,100(sp)
    424a:	d0ca                	sw	s2,96(sp)
    424c:	d686                	sw	ra,108(sp)
    424e:	84b2                	mv	s1,a2
    4250:	8936                	mv	s2,a3
    4252:	0205d363          	bgez	a1,4278 <__swhatbuf_r+0x3a>
    4256:	00c45783          	lhu	a5,12(s0)
    425a:	0807f793          	andi	a5,a5,128
    425e:	eb95                	bnez	a5,4292 <__swhatbuf_r+0x54>
    4260:	40000713          	li	a4,1024
    4264:	50b6                	lw	ra,108(sp)
    4266:	5426                	lw	s0,104(sp)
    4268:	00f92023          	sw	a5,0(s2)
    426c:	c098                	sw	a4,0(s1)
    426e:	5906                	lw	s2,96(sp)
    4270:	5496                	lw	s1,100(sp)
    4272:	4501                	li	a0,0
    4274:	6165                	addi	sp,sp,112
    4276:	8082                	ret
    4278:	0030                	addi	a2,sp,8
    427a:	419000ef          	jal	ra,4e92 <_fstat_r>
    427e:	fc054ce3          	bltz	a0,4256 <__swhatbuf_r+0x18>
    4282:	4732                	lw	a4,12(sp)
    4284:	67bd                	lui	a5,0xf
    4286:	8ff9                	and	a5,a5,a4
    4288:	7779                	lui	a4,0xffffe
    428a:	97ba                	add	a5,a5,a4
    428c:	0017b793          	seqz	a5,a5
    4290:	bfc1                	j	4260 <__swhatbuf_r+0x22>
    4292:	4781                	li	a5,0
    4294:	04000713          	li	a4,64
    4298:	b7f1                	j	4264 <__swhatbuf_r+0x26>

0000429a <__smakebuf_r>:
__smakebuf_r():
    429a:	00c5d783          	lhu	a5,12(a1)
    429e:	7179                	addi	sp,sp,-48
    42a0:	d422                	sw	s0,40(sp)
    42a2:	d606                	sw	ra,44(sp)
    42a4:	d226                	sw	s1,36(sp)
    42a6:	d04a                	sw	s2,32(sp)
    42a8:	ce4e                	sw	s3,28(sp)
    42aa:	8b89                	andi	a5,a5,2
    42ac:	842e                	mv	s0,a1
    42ae:	cf91                	beqz	a5,42ca <__smakebuf_r+0x30>
    42b0:	04740793          	addi	a5,s0,71
    42b4:	c01c                	sw	a5,0(s0)
    42b6:	c81c                	sw	a5,16(s0)
    42b8:	4785                	li	a5,1
    42ba:	c85c                	sw	a5,20(s0)
    42bc:	50b2                	lw	ra,44(sp)
    42be:	5422                	lw	s0,40(sp)
    42c0:	5492                	lw	s1,36(sp)
    42c2:	5902                	lw	s2,32(sp)
    42c4:	49f2                	lw	s3,28(sp)
    42c6:	6145                	addi	sp,sp,48
    42c8:	8082                	ret
    42ca:	0074                	addi	a3,sp,12
    42cc:	0030                	addi	a2,sp,8
    42ce:	84aa                	mv	s1,a0
    42d0:	37bd                	jal	423e <__swhatbuf_r>
    42d2:	49a2                	lw	s3,8(sp)
    42d4:	892a                	mv	s2,a0
    42d6:	8526                	mv	a0,s1
    42d8:	85ce                	mv	a1,s3
    42da:	de4ff0ef          	jal	ra,38be <_malloc_r>
    42de:	ed01                	bnez	a0,42f6 <__smakebuf_r+0x5c>
    42e0:	00c41783          	lh	a5,12(s0)
    42e4:	2007f713          	andi	a4,a5,512
    42e8:	fb71                	bnez	a4,42bc <__smakebuf_r+0x22>
    42ea:	9bf1                	andi	a5,a5,-4
    42ec:	0027e793          	ori	a5,a5,2
    42f0:	00f41623          	sh	a5,12(s0)
    42f4:	bf75                	j	42b0 <__smakebuf_r+0x16>
    42f6:	00000797          	auipc	a5,0x0
    42fa:	d6078793          	addi	a5,a5,-672 # 4056 <_cleanup_r>
    42fe:	d49c                	sw	a5,40(s1)
    4300:	00c45783          	lhu	a5,12(s0)
    4304:	c008                	sw	a0,0(s0)
    4306:	c808                	sw	a0,16(s0)
    4308:	0807e793          	ori	a5,a5,128
    430c:	00f41623          	sh	a5,12(s0)
    4310:	47b2                	lw	a5,12(sp)
    4312:	01342a23          	sw	s3,20(s0)
    4316:	cf91                	beqz	a5,4332 <__smakebuf_r+0x98>
    4318:	00e41583          	lh	a1,14(s0)
    431c:	8526                	mv	a0,s1
    431e:	39d000ef          	jal	ra,4eba <_isatty_r>
    4322:	c901                	beqz	a0,4332 <__smakebuf_r+0x98>
    4324:	00c45783          	lhu	a5,12(s0)
    4328:	9bf1                	andi	a5,a5,-4
    432a:	0017e793          	ori	a5,a5,1
    432e:	00f41623          	sh	a5,12(s0)
    4332:	00c45783          	lhu	a5,12(s0)
    4336:	0127e533          	or	a0,a5,s2
    433a:	00a41623          	sh	a0,12(s0)
    433e:	bfbd                	j	42bc <__smakebuf_r+0x22>

00004340 <__malloc_lock>:
__malloc_lock():
    4340:	89818513          	addi	a0,gp,-1896 # 200003b0 <__lock___malloc_recursive_mutex>
    4344:	bddd                	j	423a <__retarget_lock_acquire_recursive>

00004346 <__malloc_unlock>:
__malloc_unlock():
    4346:	89818513          	addi	a0,gp,-1896 # 200003b0 <__lock___malloc_recursive_mutex>
    434a:	bdcd                	j	423c <__retarget_lock_release_recursive>

0000434c <__ssputs_r>:
__ssputs_r():
    434c:	1101                	addi	sp,sp,-32
    434e:	c84a                	sw	s2,16(sp)
    4350:	0085a903          	lw	s2,8(a1)
    4354:	cc22                	sw	s0,24(sp)
    4356:	c64e                	sw	s3,12(sp)
    4358:	c256                	sw	s5,4(sp)
    435a:	c05a                	sw	s6,0(sp)
    435c:	ce06                	sw	ra,28(sp)
    435e:	ca26                	sw	s1,20(sp)
    4360:	c452                	sw	s4,8(sp)
    4362:	0005aa83          	lw	s5,0(a1)
    4366:	842e                	mv	s0,a1
    4368:	8b32                	mv	s6,a2
    436a:	89b6                	mv	s3,a3
    436c:	0726e963          	bltu	a3,s2,43de <__ssputs_r+0x92>
    4370:	00c59783          	lh	a5,12(a1)
    4374:	4807f713          	andi	a4,a5,1152
    4378:	c32d                	beqz	a4,43da <__ssputs_r+0x8e>
    437a:	4858                	lw	a4,20(s0)
    437c:	448d                	li	s1,3
    437e:	498c                	lw	a1,16(a1)
    4380:	02e484b3          	mul	s1,s1,a4
    4384:	4709                	li	a4,2
    4386:	40ba8ab3          	sub	s5,s5,a1
    438a:	8a2a                	mv	s4,a0
    438c:	02e4c4b3          	div	s1,s1,a4
    4390:	00168713          	addi	a4,a3,1 # 10001 <_data_lma+0xa761>
    4394:	9756                	add	a4,a4,s5
    4396:	00e4f363          	bgeu	s1,a4,439c <__ssputs_r+0x50>
    439a:	84ba                	mv	s1,a4
    439c:	4007f793          	andi	a5,a5,1024
    43a0:	c7bd                	beqz	a5,440e <__ssputs_r+0xc2>
    43a2:	85a6                	mv	a1,s1
    43a4:	8552                	mv	a0,s4
    43a6:	d18ff0ef          	jal	ra,38be <_malloc_r>
    43aa:	892a                	mv	s2,a0
    43ac:	c93d                	beqz	a0,4422 <__ssputs_r+0xd6>
    43ae:	480c                	lw	a1,16(s0)
    43b0:	8656                	mv	a2,s5
    43b2:	d0ffb0ef          	jal	ra,c0 <memcpy>
    43b6:	00c45783          	lhu	a5,12(s0)
    43ba:	b7f7f793          	andi	a5,a5,-1153
    43be:	0807e793          	ori	a5,a5,128
    43c2:	00f41623          	sh	a5,12(s0)
    43c6:	01242823          	sw	s2,16(s0)
    43ca:	c844                	sw	s1,20(s0)
    43cc:	9956                	add	s2,s2,s5
    43ce:	415484b3          	sub	s1,s1,s5
    43d2:	01242023          	sw	s2,0(s0)
    43d6:	c404                	sw	s1,8(s0)
    43d8:	894e                	mv	s2,s3
    43da:	0129f363          	bgeu	s3,s2,43e0 <__ssputs_r+0x94>
    43de:	894e                	mv	s2,s3
    43e0:	4008                	lw	a0,0(s0)
    43e2:	864a                	mv	a2,s2
    43e4:	85da                	mv	a1,s6
    43e6:	d01fb0ef          	jal	ra,e6 <memmove>
    43ea:	441c                	lw	a5,8(s0)
    43ec:	4501                	li	a0,0
    43ee:	412787b3          	sub	a5,a5,s2
    43f2:	c41c                	sw	a5,8(s0)
    43f4:	401c                	lw	a5,0(s0)
    43f6:	97ca                	add	a5,a5,s2
    43f8:	c01c                	sw	a5,0(s0)
    43fa:	40f2                	lw	ra,28(sp)
    43fc:	4462                	lw	s0,24(sp)
    43fe:	44d2                	lw	s1,20(sp)
    4400:	4942                	lw	s2,16(sp)
    4402:	49b2                	lw	s3,12(sp)
    4404:	4a22                	lw	s4,8(sp)
    4406:	4a92                	lw	s5,4(sp)
    4408:	4b02                	lw	s6,0(sp)
    440a:	6105                	addi	sp,sp,32
    440c:	8082                	ret
    440e:	8626                	mv	a2,s1
    4410:	8552                	mv	a0,s4
    4412:	313000ef          	jal	ra,4f24 <_realloc_r>
    4416:	892a                	mv	s2,a0
    4418:	f55d                	bnez	a0,43c6 <__ssputs_r+0x7a>
    441a:	480c                	lw	a1,16(s0)
    441c:	8552                	mv	a0,s4
    441e:	baaff0ef          	jal	ra,37c8 <_free_r>
    4422:	47b1                	li	a5,12
    4424:	00fa2023          	sw	a5,0(s4)
    4428:	00c45783          	lhu	a5,12(s0)
    442c:	557d                	li	a0,-1
    442e:	0407e793          	ori	a5,a5,64
    4432:	00f41623          	sh	a5,12(s0)
    4436:	b7d1                	j	43fa <__ssputs_r+0xae>

00004438 <_svfiprintf_r>:
_svfprintf_r():
    4438:	00c5d783          	lhu	a5,12(a1)
    443c:	7135                	addi	sp,sp,-160
    443e:	cd22                	sw	s0,152(sp)
    4440:	cb26                	sw	s1,148(sp)
    4442:	c94a                	sw	s2,144(sp)
    4444:	c552                	sw	s4,136(sp)
    4446:	cf06                	sw	ra,156(sp)
    4448:	c74e                	sw	s3,140(sp)
    444a:	c356                	sw	s5,132(sp)
    444c:	c15a                	sw	s6,128(sp)
    444e:	dede                	sw	s7,124(sp)
    4450:	dce2                	sw	s8,120(sp)
    4452:	dae6                	sw	s9,116(sp)
    4454:	0807f793          	andi	a5,a5,128
    4458:	8a2a                	mv	s4,a0
    445a:	892e                	mv	s2,a1
    445c:	84b2                	mv	s1,a2
    445e:	8436                	mv	s0,a3
    4460:	c3a9                	beqz	a5,44a2 <_svfiprintf_r+0x6a>
    4462:	499c                	lw	a5,16(a1)
    4464:	ef9d                	bnez	a5,44a2 <_svfiprintf_r+0x6a>
    4466:	04000593          	li	a1,64
    446a:	c54ff0ef          	jal	ra,38be <_malloc_r>
    446e:	00a92023          	sw	a0,0(s2)
    4472:	00a92823          	sw	a0,16(s2)
    4476:	e115                	bnez	a0,449a <_svfiprintf_r+0x62>
    4478:	47b1                	li	a5,12
    447a:	00fa2023          	sw	a5,0(s4)
    447e:	557d                	li	a0,-1
    4480:	40fa                	lw	ra,156(sp)
    4482:	446a                	lw	s0,152(sp)
    4484:	44da                	lw	s1,148(sp)
    4486:	494a                	lw	s2,144(sp)
    4488:	49ba                	lw	s3,140(sp)
    448a:	4a2a                	lw	s4,136(sp)
    448c:	4a9a                	lw	s5,132(sp)
    448e:	4b0a                	lw	s6,128(sp)
    4490:	5bf6                	lw	s7,124(sp)
    4492:	5c66                	lw	s8,120(sp)
    4494:	5cd6                	lw	s9,116(sp)
    4496:	610d                	addi	sp,sp,160
    4498:	8082                	ret
    449a:	04000793          	li	a5,64
    449e:	00f92a23          	sw	a5,20(s2)
    44a2:	02000793          	li	a5,32
    44a6:	02f104a3          	sb	a5,41(sp)
    44aa:	03000793          	li	a5,48
    44ae:	d202                	sw	zero,36(sp)
    44b0:	02f10523          	sb	a5,42(sp)
    44b4:	c622                	sw	s0,12(sp)
    44b6:	02500b93          	li	s7,37
    44ba:	00001a97          	auipc	s5,0x1
    44be:	352a8a93          	addi	s5,s5,850 # 580c <__sf_fake_stdin+0x20>
    44c2:	4c05                	li	s8,1
    44c4:	4b29                	li	s6,10
    44c6:	8426                	mv	s0,s1
    44c8:	00044783          	lbu	a5,0(s0)
    44cc:	c399                	beqz	a5,44d2 <_svfiprintf_r+0x9a>
    44ce:	09779c63          	bne	a5,s7,4566 <_svfiprintf_r+0x12e>
    44d2:	40940cb3          	sub	s9,s0,s1
    44d6:	00940d63          	beq	s0,s1,44f0 <_svfiprintf_r+0xb8>
    44da:	86e6                	mv	a3,s9
    44dc:	8626                	mv	a2,s1
    44de:	85ca                	mv	a1,s2
    44e0:	8552                	mv	a0,s4
    44e2:	35ad                	jal	434c <__ssputs_r>
    44e4:	57fd                	li	a5,-1
    44e6:	1af50163          	beq	a0,a5,4688 <_svfiprintf_r+0x250>
    44ea:	5792                	lw	a5,36(sp)
    44ec:	97e6                	add	a5,a5,s9
    44ee:	d23e                	sw	a5,36(sp)
    44f0:	00044783          	lbu	a5,0(s0)
    44f4:	18078a63          	beqz	a5,4688 <_svfiprintf_r+0x250>
    44f8:	57fd                	li	a5,-1
    44fa:	00140493          	addi	s1,s0,1
    44fe:	c802                	sw	zero,16(sp)
    4500:	ce02                	sw	zero,28(sp)
    4502:	ca3e                	sw	a5,20(sp)
    4504:	cc02                	sw	zero,24(sp)
    4506:	040109a3          	sb	zero,83(sp)
    450a:	d482                	sw	zero,104(sp)
    450c:	0004c583          	lbu	a1,0(s1)
    4510:	4615                	li	a2,5
    4512:	8556                	mv	a0,s5
    4514:	1f7000ef          	jal	ra,4f0a <memchr>
    4518:	47c2                	lw	a5,16(sp)
    451a:	00148413          	addi	s0,s1,1
    451e:	e531                	bnez	a0,456a <_svfiprintf_r+0x132>
    4520:	0107f713          	andi	a4,a5,16
    4524:	c709                	beqz	a4,452e <_svfiprintf_r+0xf6>
    4526:	02000713          	li	a4,32
    452a:	04e109a3          	sb	a4,83(sp)
    452e:	0087f713          	andi	a4,a5,8
    4532:	c709                	beqz	a4,453c <_svfiprintf_r+0x104>
    4534:	02b00713          	li	a4,43
    4538:	04e109a3          	sb	a4,83(sp)
    453c:	0004c683          	lbu	a3,0(s1)
    4540:	02a00713          	li	a4,42
    4544:	02e68b63          	beq	a3,a4,457a <_svfiprintf_r+0x142>
    4548:	47f2                	lw	a5,28(sp)
    454a:	8426                	mv	s0,s1
    454c:	4681                	li	a3,0
    454e:	4625                	li	a2,9
    4550:	00044703          	lbu	a4,0(s0)
    4554:	00140593          	addi	a1,s0,1
    4558:	fd070713          	addi	a4,a4,-48 # ffffdfd0 <_dmadata_end+0xdffdabd0>
    455c:	06e67563          	bgeu	a2,a4,45c6 <_svfiprintf_r+0x18e>
    4560:	c68d                	beqz	a3,458a <_svfiprintf_r+0x152>
    4562:	ce3e                	sw	a5,28(sp)
    4564:	a01d                	j	458a <_svfiprintf_r+0x152>
    4566:	0405                	addi	s0,s0,1
    4568:	b785                	j	44c8 <_svfiprintf_r+0x90>
    456a:	41550533          	sub	a0,a0,s5
    456e:	00ac1533          	sll	a0,s8,a0
    4572:	8fc9                	or	a5,a5,a0
    4574:	c83e                	sw	a5,16(sp)
    4576:	84a2                	mv	s1,s0
    4578:	bf51                	j	450c <_svfiprintf_r+0xd4>
    457a:	4732                	lw	a4,12(sp)
    457c:	00470693          	addi	a3,a4,4
    4580:	4318                	lw	a4,0(a4)
    4582:	c636                	sw	a3,12(sp)
    4584:	02074a63          	bltz	a4,45b8 <_svfiprintf_r+0x180>
    4588:	ce3a                	sw	a4,28(sp)
    458a:	00044703          	lbu	a4,0(s0)
    458e:	02e00793          	li	a5,46
    4592:	04f71e63          	bne	a4,a5,45ee <_svfiprintf_r+0x1b6>
    4596:	00144703          	lbu	a4,1(s0)
    459a:	02a00793          	li	a5,42
    459e:	02f71a63          	bne	a4,a5,45d2 <_svfiprintf_r+0x19a>
    45a2:	47b2                	lw	a5,12(sp)
    45a4:	0409                	addi	s0,s0,2
    45a6:	00478713          	addi	a4,a5,4
    45aa:	439c                	lw	a5,0(a5)
    45ac:	c63a                	sw	a4,12(sp)
    45ae:	0007d363          	bgez	a5,45b4 <_svfiprintf_r+0x17c>
    45b2:	57fd                	li	a5,-1
    45b4:	ca3e                	sw	a5,20(sp)
    45b6:	a825                	j	45ee <_svfiprintf_r+0x1b6>
    45b8:	40e00733          	neg	a4,a4
    45bc:	0027e793          	ori	a5,a5,2
    45c0:	ce3a                	sw	a4,28(sp)
    45c2:	c83e                	sw	a5,16(sp)
    45c4:	b7d9                	j	458a <_svfiprintf_r+0x152>
    45c6:	036787b3          	mul	a5,a5,s6
    45ca:	842e                	mv	s0,a1
    45cc:	4685                	li	a3,1
    45ce:	97ba                	add	a5,a5,a4
    45d0:	b741                	j	4550 <_svfiprintf_r+0x118>
    45d2:	0405                	addi	s0,s0,1
    45d4:	ca02                	sw	zero,20(sp)
    45d6:	4681                	li	a3,0
    45d8:	4781                	li	a5,0
    45da:	4625                	li	a2,9
    45dc:	00044703          	lbu	a4,0(s0)
    45e0:	00140593          	addi	a1,s0,1
    45e4:	fd070713          	addi	a4,a4,-48
    45e8:	06e67663          	bgeu	a2,a4,4654 <_svfiprintf_r+0x21c>
    45ec:	f6e1                	bnez	a3,45b4 <_svfiprintf_r+0x17c>
    45ee:	00044583          	lbu	a1,0(s0)
    45f2:	460d                	li	a2,3
    45f4:	00001517          	auipc	a0,0x1
    45f8:	22050513          	addi	a0,a0,544 # 5814 <__sf_fake_stdin+0x28>
    45fc:	10f000ef          	jal	ra,4f0a <memchr>
    4600:	cd11                	beqz	a0,461c <_svfiprintf_r+0x1e4>
    4602:	00001797          	auipc	a5,0x1
    4606:	21278793          	addi	a5,a5,530 # 5814 <__sf_fake_stdin+0x28>
    460a:	8d1d                	sub	a0,a0,a5
    460c:	47c2                	lw	a5,16(sp)
    460e:	04000713          	li	a4,64
    4612:	00a71733          	sll	a4,a4,a0
    4616:	8fd9                	or	a5,a5,a4
    4618:	0405                	addi	s0,s0,1
    461a:	c83e                	sw	a5,16(sp)
    461c:	00044583          	lbu	a1,0(s0)
    4620:	4619                	li	a2,6
    4622:	00001517          	auipc	a0,0x1
    4626:	1f650513          	addi	a0,a0,502 # 5818 <__sf_fake_stdin+0x2c>
    462a:	00140493          	addi	s1,s0,1
    462e:	02b10423          	sb	a1,40(sp)
    4632:	0d9000ef          	jal	ra,4f0a <memchr>
    4636:	c12d                	beqz	a0,4698 <_svfiprintf_r+0x260>
    4638:	00000793          	li	a5,0
    463c:	e795                	bnez	a5,4668 <_svfiprintf_r+0x230>
    463e:	4742                	lw	a4,16(sp)
    4640:	47b2                	lw	a5,12(sp)
    4642:	10077713          	andi	a4,a4,256
    4646:	cf09                	beqz	a4,4660 <_svfiprintf_r+0x228>
    4648:	0791                	addi	a5,a5,4
    464a:	c63e                	sw	a5,12(sp)
    464c:	5792                	lw	a5,36(sp)
    464e:	97ce                	add	a5,a5,s3
    4650:	d23e                	sw	a5,36(sp)
    4652:	bd95                	j	44c6 <_svfiprintf_r+0x8e>
    4654:	036787b3          	mul	a5,a5,s6
    4658:	842e                	mv	s0,a1
    465a:	4685                	li	a3,1
    465c:	97ba                	add	a5,a5,a4
    465e:	bfbd                	j	45dc <_svfiprintf_r+0x1a4>
    4660:	079d                	addi	a5,a5,7
    4662:	9be1                	andi	a5,a5,-8
    4664:	07a1                	addi	a5,a5,8
    4666:	b7d5                	j	464a <_svfiprintf_r+0x212>
    4668:	0078                	addi	a4,sp,12
    466a:	00000697          	auipc	a3,0x0
    466e:	ce268693          	addi	a3,a3,-798 # 434c <__ssputs_r>
    4672:	864a                	mv	a2,s2
    4674:	080c                	addi	a1,sp,16
    4676:	8552                	mv	a0,s4
    4678:	00000097          	auipc	ra,0x0
    467c:	000000e7          	jalr	zero # 0 <_sinit>
    4680:	57fd                	li	a5,-1
    4682:	89aa                	mv	s3,a0
    4684:	fcf514e3          	bne	a0,a5,464c <_svfiprintf_r+0x214>
    4688:	00c95783          	lhu	a5,12(s2)
    468c:	0407f793          	andi	a5,a5,64
    4690:	de0797e3          	bnez	a5,447e <_svfiprintf_r+0x46>
    4694:	5512                	lw	a0,36(sp)
    4696:	b3ed                	j	4480 <_svfiprintf_r+0x48>
    4698:	0078                	addi	a4,sp,12
    469a:	00000697          	auipc	a3,0x0
    469e:	cb268693          	addi	a3,a3,-846 # 434c <__ssputs_r>
    46a2:	864a                	mv	a2,s2
    46a4:	080c                	addi	a1,sp,16
    46a6:	8552                	mv	a0,s4
    46a8:	2a11                	jal	47bc <_printf_i>
    46aa:	bfd9                	j	4680 <_svfiprintf_r+0x248>

000046ac <_printf_common>:
_printf_common():
    46ac:	7179                	addi	sp,sp,-48
    46ae:	ca56                	sw	s5,20(sp)
    46b0:	499c                	lw	a5,16(a1)
    46b2:	8aba                	mv	s5,a4
    46b4:	4598                	lw	a4,8(a1)
    46b6:	d422                	sw	s0,40(sp)
    46b8:	d04a                	sw	s2,32(sp)
    46ba:	ce4e                	sw	s3,28(sp)
    46bc:	cc52                	sw	s4,24(sp)
    46be:	d606                	sw	ra,44(sp)
    46c0:	d226                	sw	s1,36(sp)
    46c2:	c85a                	sw	s6,16(sp)
    46c4:	c65e                	sw	s7,12(sp)
    46c6:	89aa                	mv	s3,a0
    46c8:	842e                	mv	s0,a1
    46ca:	8932                	mv	s2,a2
    46cc:	8a36                	mv	s4,a3
    46ce:	00e7d363          	bge	a5,a4,46d4 <_printf_common+0x28>
    46d2:	87ba                	mv	a5,a4
    46d4:	00f92023          	sw	a5,0(s2)
    46d8:	04344703          	lbu	a4,67(s0)
    46dc:	c701                	beqz	a4,46e4 <_printf_common+0x38>
    46de:	0785                	addi	a5,a5,1
    46e0:	00f92023          	sw	a5,0(s2)
    46e4:	401c                	lw	a5,0(s0)
    46e6:	0207f793          	andi	a5,a5,32
    46ea:	c791                	beqz	a5,46f6 <_printf_common+0x4a>
    46ec:	00092783          	lw	a5,0(s2)
    46f0:	0789                	addi	a5,a5,2
    46f2:	00f92023          	sw	a5,0(s2)
    46f6:	4004                	lw	s1,0(s0)
    46f8:	8899                	andi	s1,s1,6
    46fa:	e891                	bnez	s1,470e <_printf_common+0x62>
    46fc:	01940b13          	addi	s6,s0,25
    4700:	5bfd                	li	s7,-1
    4702:	445c                	lw	a5,12(s0)
    4704:	00092703          	lw	a4,0(s2)
    4708:	8f99                	sub	a5,a5,a4
    470a:	04f4cc63          	blt	s1,a5,4762 <_printf_common+0xb6>
    470e:	04344783          	lbu	a5,67(s0)
    4712:	00f036b3          	snez	a3,a5
    4716:	401c                	lw	a5,0(s0)
    4718:	0207f793          	andi	a5,a5,32
    471c:	eba5                	bnez	a5,478c <_printf_common+0xe0>
    471e:	04340613          	addi	a2,s0,67
    4722:	85d2                	mv	a1,s4
    4724:	854e                	mv	a0,s3
    4726:	9a82                	jalr	s5
    4728:	57fd                	li	a5,-1
    472a:	04f50363          	beq	a0,a5,4770 <_printf_common+0xc4>
    472e:	401c                	lw	a5,0(s0)
    4730:	4711                	li	a4,4
    4732:	4481                	li	s1,0
    4734:	8b99                	andi	a5,a5,6
    4736:	00e79963          	bne	a5,a4,4748 <_printf_common+0x9c>
    473a:	4444                	lw	s1,12(s0)
    473c:	00092783          	lw	a5,0(s2)
    4740:	8c9d                	sub	s1,s1,a5
    4742:	0004d363          	bgez	s1,4748 <_printf_common+0x9c>
    4746:	4481                	li	s1,0
    4748:	441c                	lw	a5,8(s0)
    474a:	4818                	lw	a4,16(s0)
    474c:	00f75463          	bge	a4,a5,4754 <_printf_common+0xa8>
    4750:	8f99                	sub	a5,a5,a4
    4752:	94be                	add	s1,s1,a5
    4754:	4901                	li	s2,0
    4756:	0469                	addi	s0,s0,26
    4758:	5b7d                	li	s6,-1
    475a:	05249863          	bne	s1,s2,47aa <_printf_common+0xfe>
    475e:	4501                	li	a0,0
    4760:	a809                	j	4772 <_printf_common+0xc6>
    4762:	4685                	li	a3,1
    4764:	865a                	mv	a2,s6
    4766:	85d2                	mv	a1,s4
    4768:	854e                	mv	a0,s3
    476a:	9a82                	jalr	s5
    476c:	01751e63          	bne	a0,s7,4788 <_printf_common+0xdc>
    4770:	557d                	li	a0,-1
    4772:	50b2                	lw	ra,44(sp)
    4774:	5422                	lw	s0,40(sp)
    4776:	5492                	lw	s1,36(sp)
    4778:	5902                	lw	s2,32(sp)
    477a:	49f2                	lw	s3,28(sp)
    477c:	4a62                	lw	s4,24(sp)
    477e:	4ad2                	lw	s5,20(sp)
    4780:	4b42                	lw	s6,16(sp)
    4782:	4bb2                	lw	s7,12(sp)
    4784:	6145                	addi	sp,sp,48
    4786:	8082                	ret
    4788:	0485                	addi	s1,s1,1
    478a:	bfa5                	j	4702 <_printf_common+0x56>
    478c:	00d40733          	add	a4,s0,a3
    4790:	03000613          	li	a2,48
    4794:	04c701a3          	sb	a2,67(a4)
    4798:	04544703          	lbu	a4,69(s0)
    479c:	00168793          	addi	a5,a3,1
    47a0:	97a2                	add	a5,a5,s0
    47a2:	0689                	addi	a3,a3,2
    47a4:	04e781a3          	sb	a4,67(a5)
    47a8:	bf9d                	j	471e <_printf_common+0x72>
    47aa:	4685                	li	a3,1
    47ac:	8622                	mv	a2,s0
    47ae:	85d2                	mv	a1,s4
    47b0:	854e                	mv	a0,s3
    47b2:	9a82                	jalr	s5
    47b4:	fb650ee3          	beq	a0,s6,4770 <_printf_common+0xc4>
    47b8:	0905                	addi	s2,s2,1
    47ba:	b745                	j	475a <_printf_common+0xae>

000047bc <_printf_i>:
_printf_i():
    47bc:	7179                	addi	sp,sp,-48
    47be:	d422                	sw	s0,40(sp)
    47c0:	d04a                	sw	s2,32(sp)
    47c2:	ce4e                	sw	s3,28(sp)
    47c4:	cc52                	sw	s4,24(sp)
    47c6:	d606                	sw	ra,44(sp)
    47c8:	d226                	sw	s1,36(sp)
    47ca:	ca56                	sw	s5,20(sp)
    47cc:	c85a                	sw	s6,16(sp)
    47ce:	0185c803          	lbu	a6,24(a1)
    47d2:	07800793          	li	a5,120
    47d6:	892a                	mv	s2,a0
    47d8:	842e                	mv	s0,a1
    47da:	89b2                	mv	s3,a2
    47dc:	8a36                	mv	s4,a3
    47de:	0307e263          	bltu	a5,a6,4802 <_printf_i+0x46>
    47e2:	06200793          	li	a5,98
    47e6:	04358693          	addi	a3,a1,67
    47ea:	0307e163          	bltu	a5,a6,480c <_printf_i+0x50>
    47ee:	1e080163          	beqz	a6,49d0 <_printf_i+0x214>
    47f2:	05800793          	li	a5,88
    47f6:	00001617          	auipc	a2,0x1
    47fa:	02a60613          	addi	a2,a2,42 # 5820 <__sf_fake_stdin+0x34>
    47fe:	14f80b63          	beq	a6,a5,4954 <_printf_i+0x198>
    4802:	04240493          	addi	s1,s0,66
    4806:	05040123          	sb	a6,66(s0)
    480a:	a815                	j	483e <_printf_i+0x82>
    480c:	f9d80793          	addi	a5,a6,-99 # 2001ff9d <_eusrstack+0x1bf9d>
    4810:	0ff7f793          	zext.b	a5,a5
    4814:	4655                	li	a2,21
    4816:	fef666e3          	bltu	a2,a5,4802 <_printf_i+0x46>
    481a:	00001617          	auipc	a2,0x1
    481e:	02e60613          	addi	a2,a2,46 # 5848 <__sf_fake_stdin+0x5c>
    4822:	078a                	slli	a5,a5,0x2
    4824:	97b2                	add	a5,a5,a2
    4826:	439c                	lw	a5,0(a5)
    4828:	97b2                	add	a5,a5,a2
    482a:	8782                	jr	a5
    482c:	431c                	lw	a5,0(a4)
    482e:	04258493          	addi	s1,a1,66
    4832:	00478693          	addi	a3,a5,4
    4836:	439c                	lw	a5,0(a5)
    4838:	c314                	sw	a3,0(a4)
    483a:	04f58123          	sb	a5,66(a1)
    483e:	4785                	li	a5,1
    4840:	aa4d                	j	49f2 <_printf_i+0x236>
    4842:	4190                	lw	a2,0(a1)
    4844:	431c                	lw	a5,0(a4)
    4846:	08067513          	andi	a0,a2,128
    484a:	00478593          	addi	a1,a5,4
    484e:	c139                	beqz	a0,4894 <_printf_i+0xd8>
    4850:	439c                	lw	a5,0(a5)
    4852:	c30c                	sw	a1,0(a4)
    4854:	4058                	lw	a4,4(s0)
    4856:	1407d363          	bgez	a5,499c <_printf_i+0x1e0>
    485a:	02d00593          	li	a1,45
    485e:	04b401a3          	sb	a1,67(s0)
    4862:	c418                	sw	a4,8(s0)
    4864:	04075063          	bgez	a4,48a4 <_printf_i+0xe8>
    4868:	40f007b3          	neg	a5,a5
    486c:	00001617          	auipc	a2,0x1
    4870:	fb460613          	addi	a2,a2,-76 # 5820 <__sf_fake_stdin+0x34>
    4874:	4829                	li	a6,10
    4876:	84b6                	mv	s1,a3
    4878:	0307f733          	remu	a4,a5,a6
    487c:	14fd                	addi	s1,s1,-1
    487e:	9732                	add	a4,a4,a2
    4880:	00074703          	lbu	a4,0(a4)
    4884:	00e48023          	sb	a4,0(s1)
    4888:	873e                	mv	a4,a5
    488a:	0307d7b3          	divu	a5,a5,a6
    488e:	ff0775e3          	bgeu	a4,a6,4878 <_printf_i+0xbc>
    4892:	a08d                	j	48f4 <_printf_i+0x138>
    4894:	439c                	lw	a5,0(a5)
    4896:	04067513          	andi	a0,a2,64
    489a:	c30c                	sw	a1,0(a4)
    489c:	dd45                	beqz	a0,4854 <_printf_i+0x98>
    489e:	07c2                	slli	a5,a5,0x10
    48a0:	87c1                	srai	a5,a5,0x10
    48a2:	bf4d                	j	4854 <_printf_i+0x98>
    48a4:	9a6d                	andi	a2,a2,-5
    48a6:	c010                	sw	a2,0(s0)
    48a8:	b7c1                	j	4868 <_printf_i+0xac>
    48aa:	4190                	lw	a2,0(a1)
    48ac:	431c                	lw	a5,0(a4)
    48ae:	08067513          	andi	a0,a2,128
    48b2:	00478593          	addi	a1,a5,4
    48b6:	c501                	beqz	a0,48be <_printf_i+0x102>
    48b8:	c30c                	sw	a1,0(a4)
    48ba:	439c                	lw	a5,0(a5)
    48bc:	a039                	j	48ca <_printf_i+0x10e>
    48be:	04067613          	andi	a2,a2,64
    48c2:	c30c                	sw	a1,0(a4)
    48c4:	da7d                	beqz	a2,48ba <_printf_i+0xfe>
    48c6:	0007d783          	lhu	a5,0(a5)
    48ca:	06f00713          	li	a4,111
    48ce:	00001617          	auipc	a2,0x1
    48d2:	f5260613          	addi	a2,a2,-174 # 5820 <__sf_fake_stdin+0x34>
    48d6:	0ce81163          	bne	a6,a4,4998 <_printf_i+0x1dc>
    48da:	4821                	li	a6,8
    48dc:	040401a3          	sb	zero,67(s0)
    48e0:	4058                	lw	a4,4(s0)
    48e2:	c418                	sw	a4,8(s0)
    48e4:	f80749e3          	bltz	a4,4876 <_printf_i+0xba>
    48e8:	400c                	lw	a1,0(s0)
    48ea:	99ed                	andi	a1,a1,-5
    48ec:	c00c                	sw	a1,0(s0)
    48ee:	f7c1                	bnez	a5,4876 <_printf_i+0xba>
    48f0:	84b6                	mv	s1,a3
    48f2:	f351                	bnez	a4,4876 <_printf_i+0xba>
    48f4:	47a1                	li	a5,8
    48f6:	00f81e63          	bne	a6,a5,4912 <_printf_i+0x156>
    48fa:	401c                	lw	a5,0(s0)
    48fc:	8b85                	andi	a5,a5,1
    48fe:	cb91                	beqz	a5,4912 <_printf_i+0x156>
    4900:	4058                	lw	a4,4(s0)
    4902:	481c                	lw	a5,16(s0)
    4904:	00e7c763          	blt	a5,a4,4912 <_printf_i+0x156>
    4908:	03000793          	li	a5,48
    490c:	fef48fa3          	sb	a5,-1(s1)
    4910:	14fd                	addi	s1,s1,-1
    4912:	8e85                	sub	a3,a3,s1
    4914:	c814                	sw	a3,16(s0)
    4916:	8752                	mv	a4,s4
    4918:	86ce                	mv	a3,s3
    491a:	0070                	addi	a2,sp,12
    491c:	85a2                	mv	a1,s0
    491e:	854a                	mv	a0,s2
    4920:	d8dff0ef          	jal	ra,46ac <_printf_common>
    4924:	5afd                	li	s5,-1
    4926:	0d551a63          	bne	a0,s5,49fa <_printf_i+0x23e>
    492a:	557d                	li	a0,-1
    492c:	50b2                	lw	ra,44(sp)
    492e:	5422                	lw	s0,40(sp)
    4930:	5492                	lw	s1,36(sp)
    4932:	5902                	lw	s2,32(sp)
    4934:	49f2                	lw	s3,28(sp)
    4936:	4a62                	lw	s4,24(sp)
    4938:	4ad2                	lw	s5,20(sp)
    493a:	4b42                	lw	s6,16(sp)
    493c:	6145                	addi	sp,sp,48
    493e:	8082                	ret
    4940:	419c                	lw	a5,0(a1)
    4942:	0207e793          	ori	a5,a5,32
    4946:	c19c                	sw	a5,0(a1)
    4948:	07800813          	li	a6,120
    494c:	00001617          	auipc	a2,0x1
    4950:	ee860613          	addi	a2,a2,-280 # 5834 <__sf_fake_stdin+0x48>
    4954:	050402a3          	sb	a6,69(s0)
    4958:	400c                	lw	a1,0(s0)
    495a:	431c                	lw	a5,0(a4)
    495c:	0805f813          	andi	a6,a1,128
    4960:	00478513          	addi	a0,a5,4
    4964:	00080563          	beqz	a6,496e <_printf_i+0x1b2>
    4968:	c308                	sw	a0,0(a4)
    496a:	439c                	lw	a5,0(a5)
    496c:	a801                	j	497c <_printf_i+0x1c0>
    496e:	0405f813          	andi	a6,a1,64
    4972:	c308                	sw	a0,0(a4)
    4974:	fe080be3          	beqz	a6,496a <_printf_i+0x1ae>
    4978:	0007d783          	lhu	a5,0(a5)
    497c:	0015f713          	andi	a4,a1,1
    4980:	c701                	beqz	a4,4988 <_printf_i+0x1cc>
    4982:	0205e593          	ori	a1,a1,32
    4986:	c00c                	sw	a1,0(s0)
    4988:	c399                	beqz	a5,498e <_printf_i+0x1d2>
    498a:	4841                	li	a6,16
    498c:	bf81                	j	48dc <_printf_i+0x120>
    498e:	4018                	lw	a4,0(s0)
    4990:	fdf77713          	andi	a4,a4,-33
    4994:	c018                	sw	a4,0(s0)
    4996:	bfd5                	j	498a <_printf_i+0x1ce>
    4998:	4829                	li	a6,10
    499a:	b789                	j	48dc <_printf_i+0x120>
    499c:	00001617          	auipc	a2,0x1
    49a0:	e8460613          	addi	a2,a2,-380 # 5820 <__sf_fake_stdin+0x34>
    49a4:	4829                	li	a6,10
    49a6:	bf2d                	j	48e0 <_printf_i+0x124>
    49a8:	4190                	lw	a2,0(a1)
    49aa:	431c                	lw	a5,0(a4)
    49ac:	49cc                	lw	a1,20(a1)
    49ae:	08067813          	andi	a6,a2,128
    49b2:	00478513          	addi	a0,a5,4
    49b6:	00080663          	beqz	a6,49c2 <_printf_i+0x206>
    49ba:	c308                	sw	a0,0(a4)
    49bc:	439c                	lw	a5,0(a5)
    49be:	c38c                	sw	a1,0(a5)
    49c0:	a801                	j	49d0 <_printf_i+0x214>
    49c2:	c308                	sw	a0,0(a4)
    49c4:	04067613          	andi	a2,a2,64
    49c8:	439c                	lw	a5,0(a5)
    49ca:	da75                	beqz	a2,49be <_printf_i+0x202>
    49cc:	00b79023          	sh	a1,0(a5)
    49d0:	00042823          	sw	zero,16(s0)
    49d4:	84b6                	mv	s1,a3
    49d6:	b781                	j	4916 <_printf_i+0x15a>
    49d8:	431c                	lw	a5,0(a4)
    49da:	41d0                	lw	a2,4(a1)
    49dc:	4581                	li	a1,0
    49de:	00478693          	addi	a3,a5,4
    49e2:	c314                	sw	a3,0(a4)
    49e4:	4384                	lw	s1,0(a5)
    49e6:	8526                	mv	a0,s1
    49e8:	230d                	jal	4f0a <memchr>
    49ea:	c119                	beqz	a0,49f0 <_printf_i+0x234>
    49ec:	8d05                	sub	a0,a0,s1
    49ee:	c048                	sw	a0,4(s0)
    49f0:	405c                	lw	a5,4(s0)
    49f2:	c81c                	sw	a5,16(s0)
    49f4:	040401a3          	sb	zero,67(s0)
    49f8:	bf39                	j	4916 <_printf_i+0x15a>
    49fa:	4814                	lw	a3,16(s0)
    49fc:	8626                	mv	a2,s1
    49fe:	85ce                	mv	a1,s3
    4a00:	854a                	mv	a0,s2
    4a02:	9a02                	jalr	s4
    4a04:	f35503e3          	beq	a0,s5,492a <_printf_i+0x16e>
    4a08:	401c                	lw	a5,0(s0)
    4a0a:	8b89                	andi	a5,a5,2
    4a0c:	e78d                	bnez	a5,4a36 <_printf_i+0x27a>
    4a0e:	47b2                	lw	a5,12(sp)
    4a10:	4448                	lw	a0,12(s0)
    4a12:	f0f55de3          	bge	a0,a5,492c <_printf_i+0x170>
    4a16:	853e                	mv	a0,a5
    4a18:	bf11                	j	492c <_printf_i+0x170>
    4a1a:	4685                	li	a3,1
    4a1c:	8656                	mv	a2,s5
    4a1e:	85ce                	mv	a1,s3
    4a20:	854a                	mv	a0,s2
    4a22:	9a02                	jalr	s4
    4a24:	f16503e3          	beq	a0,s6,492a <_printf_i+0x16e>
    4a28:	0485                	addi	s1,s1,1
    4a2a:	445c                	lw	a5,12(s0)
    4a2c:	4732                	lw	a4,12(sp)
    4a2e:	8f99                	sub	a5,a5,a4
    4a30:	fef4c5e3          	blt	s1,a5,4a1a <_printf_i+0x25e>
    4a34:	bfe9                	j	4a0e <_printf_i+0x252>
    4a36:	4481                	li	s1,0
    4a38:	01940a93          	addi	s5,s0,25
    4a3c:	5b7d                	li	s6,-1
    4a3e:	b7f5                	j	4a2a <_printf_i+0x26e>

00004a40 <__sfputc_r>:
__sfputc_r():
    4a40:	461c                	lw	a5,8(a2)
    4a42:	17fd                	addi	a5,a5,-1
    4a44:	c61c                	sw	a5,8(a2)
    4a46:	0007da63          	bgez	a5,4a5a <__sfputc_r+0x1a>
    4a4a:	4e18                	lw	a4,24(a2)
    4a4c:	00e7c563          	blt	a5,a4,4a56 <__sfputc_r+0x16>
    4a50:	47a9                	li	a5,10
    4a52:	00f59463          	bne	a1,a5,4a5a <__sfputc_r+0x1a>
    4a56:	a18ff06f          	j	3c6e <__swbuf_r>
    4a5a:	421c                	lw	a5,0(a2)
    4a5c:	852e                	mv	a0,a1
    4a5e:	00178713          	addi	a4,a5,1
    4a62:	c218                	sw	a4,0(a2)
    4a64:	00b78023          	sb	a1,0(a5)
    4a68:	8082                	ret

00004a6a <__sfputs_r>:
__sfputs_r():
    4a6a:	1101                	addi	sp,sp,-32
    4a6c:	cc22                	sw	s0,24(sp)
    4a6e:	ca26                	sw	s1,20(sp)
    4a70:	c84a                	sw	s2,16(sp)
    4a72:	c64e                	sw	s3,12(sp)
    4a74:	c452                	sw	s4,8(sp)
    4a76:	ce06                	sw	ra,28(sp)
    4a78:	892a                	mv	s2,a0
    4a7a:	89ae                	mv	s3,a1
    4a7c:	8432                	mv	s0,a2
    4a7e:	00d604b3          	add	s1,a2,a3
    4a82:	5a7d                	li	s4,-1
    4a84:	00941463          	bne	s0,s1,4a8c <__sfputs_r+0x22>
    4a88:	4501                	li	a0,0
    4a8a:	a809                	j	4a9c <__sfputs_r+0x32>
    4a8c:	00044583          	lbu	a1,0(s0)
    4a90:	864e                	mv	a2,s3
    4a92:	854a                	mv	a0,s2
    4a94:	3775                	jal	4a40 <__sfputc_r>
    4a96:	0405                	addi	s0,s0,1
    4a98:	ff4516e3          	bne	a0,s4,4a84 <__sfputs_r+0x1a>
    4a9c:	40f2                	lw	ra,28(sp)
    4a9e:	4462                	lw	s0,24(sp)
    4aa0:	44d2                	lw	s1,20(sp)
    4aa2:	4942                	lw	s2,16(sp)
    4aa4:	49b2                	lw	s3,12(sp)
    4aa6:	4a22                	lw	s4,8(sp)
    4aa8:	6105                	addi	sp,sp,32
    4aaa:	8082                	ret

00004aac <_vfiprintf_r>:
_vfiprintf_r():
    4aac:	7135                	addi	sp,sp,-160
    4aae:	cd22                	sw	s0,152(sp)
    4ab0:	cb26                	sw	s1,148(sp)
    4ab2:	c94a                	sw	s2,144(sp)
    4ab4:	c74e                	sw	s3,140(sp)
    4ab6:	cf06                	sw	ra,156(sp)
    4ab8:	c552                	sw	s4,136(sp)
    4aba:	c356                	sw	s5,132(sp)
    4abc:	c15a                	sw	s6,128(sp)
    4abe:	dede                	sw	s7,124(sp)
    4ac0:	dce2                	sw	s8,120(sp)
    4ac2:	dae6                	sw	s9,116(sp)
    4ac4:	89aa                	mv	s3,a0
    4ac6:	842e                	mv	s0,a1
    4ac8:	8932                	mv	s2,a2
    4aca:	84b6                	mv	s1,a3
    4acc:	c509                	beqz	a0,4ad6 <_vfiprintf_r+0x2a>
    4ace:	4d1c                	lw	a5,24(a0)
    4ad0:	e399                	bnez	a5,4ad6 <_vfiprintf_r+0x2a>
    4ad2:	deeff0ef          	jal	ra,40c0 <__sinit>
    4ad6:	00001797          	auipc	a5,0x1
    4ada:	d1678793          	addi	a5,a5,-746 # 57ec <__sf_fake_stdin>
    4ade:	04f41b63          	bne	s0,a5,4b34 <_vfiprintf_r+0x88>
    4ae2:	0049a403          	lw	s0,4(s3)
    4ae6:	507c                	lw	a5,100(s0)
    4ae8:	8b85                	andi	a5,a5,1
    4aea:	eb89                	bnez	a5,4afc <_vfiprintf_r+0x50>
    4aec:	00c45783          	lhu	a5,12(s0)
    4af0:	2007f793          	andi	a5,a5,512
    4af4:	e781                	bnez	a5,4afc <_vfiprintf_r+0x50>
    4af6:	4c28                	lw	a0,88(s0)
    4af8:	f42ff0ef          	jal	ra,423a <__retarget_lock_acquire_recursive>
    4afc:	00c45783          	lhu	a5,12(s0)
    4b00:	8ba1                	andi	a5,a5,8
    4b02:	c399                	beqz	a5,4b08 <_vfiprintf_r+0x5c>
    4b04:	481c                	lw	a5,16(s0)
    4b06:	e3b5                	bnez	a5,4b6a <_vfiprintf_r+0xbe>
    4b08:	85a2                	mv	a1,s0
    4b0a:	854e                	mv	a0,s3
    4b0c:	a22ff0ef          	jal	ra,3d2e <__swsetup_r>
    4b10:	cd29                	beqz	a0,4b6a <_vfiprintf_r+0xbe>
    4b12:	507c                	lw	a5,100(s0)
    4b14:	8b85                	andi	a5,a5,1
    4b16:	c3a9                	beqz	a5,4b58 <_vfiprintf_r+0xac>
    4b18:	557d                	li	a0,-1
    4b1a:	40fa                	lw	ra,156(sp)
    4b1c:	446a                	lw	s0,152(sp)
    4b1e:	44da                	lw	s1,148(sp)
    4b20:	494a                	lw	s2,144(sp)
    4b22:	49ba                	lw	s3,140(sp)
    4b24:	4a2a                	lw	s4,136(sp)
    4b26:	4a9a                	lw	s5,132(sp)
    4b28:	4b0a                	lw	s6,128(sp)
    4b2a:	5bf6                	lw	s7,124(sp)
    4b2c:	5c66                	lw	s8,120(sp)
    4b2e:	5cd6                	lw	s9,116(sp)
    4b30:	610d                	addi	sp,sp,160
    4b32:	8082                	ret
    4b34:	00001797          	auipc	a5,0x1
    4b38:	c9878793          	addi	a5,a5,-872 # 57cc <__sf_fake_stdout>
    4b3c:	00f41563          	bne	s0,a5,4b46 <_vfiprintf_r+0x9a>
    4b40:	0089a403          	lw	s0,8(s3)
    4b44:	b74d                	j	4ae6 <_vfiprintf_r+0x3a>
    4b46:	00001797          	auipc	a5,0x1
    4b4a:	c6678793          	addi	a5,a5,-922 # 57ac <__sf_fake_stderr>
    4b4e:	f8f41ce3          	bne	s0,a5,4ae6 <_vfiprintf_r+0x3a>
    4b52:	00c9a403          	lw	s0,12(s3)
    4b56:	bf41                	j	4ae6 <_vfiprintf_r+0x3a>
    4b58:	00c45783          	lhu	a5,12(s0)
    4b5c:	2007f793          	andi	a5,a5,512
    4b60:	ffc5                	bnez	a5,4b18 <_vfiprintf_r+0x6c>
    4b62:	4c28                	lw	a0,88(s0)
    4b64:	ed8ff0ef          	jal	ra,423c <__retarget_lock_release_recursive>
    4b68:	bf45                	j	4b18 <_vfiprintf_r+0x6c>
    4b6a:	02000793          	li	a5,32
    4b6e:	02f104a3          	sb	a5,41(sp)
    4b72:	03000793          	li	a5,48
    4b76:	d202                	sw	zero,36(sp)
    4b78:	02f10523          	sb	a5,42(sp)
    4b7c:	c626                	sw	s1,12(sp)
    4b7e:	02500b93          	li	s7,37
    4b82:	00001a97          	auipc	s5,0x1
    4b86:	c8aa8a93          	addi	s5,s5,-886 # 580c <__sf_fake_stdin+0x20>
    4b8a:	4c05                	li	s8,1
    4b8c:	4b29                	li	s6,10
    4b8e:	84ca                	mv	s1,s2
    4b90:	0004c783          	lbu	a5,0(s1)
    4b94:	c399                	beqz	a5,4b9a <_vfiprintf_r+0xee>
    4b96:	09779b63          	bne	a5,s7,4c2c <_vfiprintf_r+0x180>
    4b9a:	41248cb3          	sub	s9,s1,s2
    4b9e:	01248d63          	beq	s1,s2,4bb8 <_vfiprintf_r+0x10c>
    4ba2:	86e6                	mv	a3,s9
    4ba4:	864a                	mv	a2,s2
    4ba6:	85a2                	mv	a1,s0
    4ba8:	854e                	mv	a0,s3
    4baa:	35c1                	jal	4a6a <__sfputs_r>
    4bac:	57fd                	li	a5,-1
    4bae:	18f50e63          	beq	a0,a5,4d4a <_vfiprintf_r+0x29e>
    4bb2:	5792                	lw	a5,36(sp)
    4bb4:	97e6                	add	a5,a5,s9
    4bb6:	d23e                	sw	a5,36(sp)
    4bb8:	0004c783          	lbu	a5,0(s1)
    4bbc:	18078763          	beqz	a5,4d4a <_vfiprintf_r+0x29e>
    4bc0:	57fd                	li	a5,-1
    4bc2:	00148913          	addi	s2,s1,1
    4bc6:	c802                	sw	zero,16(sp)
    4bc8:	ce02                	sw	zero,28(sp)
    4bca:	ca3e                	sw	a5,20(sp)
    4bcc:	cc02                	sw	zero,24(sp)
    4bce:	040109a3          	sb	zero,83(sp)
    4bd2:	d482                	sw	zero,104(sp)
    4bd4:	00094583          	lbu	a1,0(s2)
    4bd8:	4615                	li	a2,5
    4bda:	8556                	mv	a0,s5
    4bdc:	263d                	jal	4f0a <memchr>
    4bde:	47c2                	lw	a5,16(sp)
    4be0:	00190493          	addi	s1,s2,1
    4be4:	e531                	bnez	a0,4c30 <_vfiprintf_r+0x184>
    4be6:	0107f713          	andi	a4,a5,16
    4bea:	c709                	beqz	a4,4bf4 <_vfiprintf_r+0x148>
    4bec:	02000713          	li	a4,32
    4bf0:	04e109a3          	sb	a4,83(sp)
    4bf4:	0087f713          	andi	a4,a5,8
    4bf8:	c709                	beqz	a4,4c02 <_vfiprintf_r+0x156>
    4bfa:	02b00713          	li	a4,43
    4bfe:	04e109a3          	sb	a4,83(sp)
    4c02:	00094683          	lbu	a3,0(s2)
    4c06:	02a00713          	li	a4,42
    4c0a:	02e68b63          	beq	a3,a4,4c40 <_vfiprintf_r+0x194>
    4c0e:	47f2                	lw	a5,28(sp)
    4c10:	84ca                	mv	s1,s2
    4c12:	4681                	li	a3,0
    4c14:	4625                	li	a2,9
    4c16:	0004c703          	lbu	a4,0(s1)
    4c1a:	00148593          	addi	a1,s1,1
    4c1e:	fd070713          	addi	a4,a4,-48
    4c22:	06e67563          	bgeu	a2,a4,4c8c <_vfiprintf_r+0x1e0>
    4c26:	c68d                	beqz	a3,4c50 <_vfiprintf_r+0x1a4>
    4c28:	ce3e                	sw	a5,28(sp)
    4c2a:	a01d                	j	4c50 <_vfiprintf_r+0x1a4>
    4c2c:	0485                	addi	s1,s1,1
    4c2e:	b78d                	j	4b90 <_vfiprintf_r+0xe4>
    4c30:	41550533          	sub	a0,a0,s5
    4c34:	00ac1533          	sll	a0,s8,a0
    4c38:	8fc9                	or	a5,a5,a0
    4c3a:	c83e                	sw	a5,16(sp)
    4c3c:	8926                	mv	s2,s1
    4c3e:	bf59                	j	4bd4 <_vfiprintf_r+0x128>
    4c40:	4732                	lw	a4,12(sp)
    4c42:	00470693          	addi	a3,a4,4
    4c46:	4318                	lw	a4,0(a4)
    4c48:	c636                	sw	a3,12(sp)
    4c4a:	02074a63          	bltz	a4,4c7e <_vfiprintf_r+0x1d2>
    4c4e:	ce3a                	sw	a4,28(sp)
    4c50:	0004c703          	lbu	a4,0(s1)
    4c54:	02e00793          	li	a5,46
    4c58:	04f71e63          	bne	a4,a5,4cb4 <_vfiprintf_r+0x208>
    4c5c:	0014c703          	lbu	a4,1(s1)
    4c60:	02a00793          	li	a5,42
    4c64:	02f71a63          	bne	a4,a5,4c98 <_vfiprintf_r+0x1ec>
    4c68:	47b2                	lw	a5,12(sp)
    4c6a:	0489                	addi	s1,s1,2
    4c6c:	00478713          	addi	a4,a5,4
    4c70:	439c                	lw	a5,0(a5)
    4c72:	c63a                	sw	a4,12(sp)
    4c74:	0007d363          	bgez	a5,4c7a <_vfiprintf_r+0x1ce>
    4c78:	57fd                	li	a5,-1
    4c7a:	ca3e                	sw	a5,20(sp)
    4c7c:	a825                	j	4cb4 <_vfiprintf_r+0x208>
    4c7e:	40e00733          	neg	a4,a4
    4c82:	0027e793          	ori	a5,a5,2
    4c86:	ce3a                	sw	a4,28(sp)
    4c88:	c83e                	sw	a5,16(sp)
    4c8a:	b7d9                	j	4c50 <_vfiprintf_r+0x1a4>
    4c8c:	036787b3          	mul	a5,a5,s6
    4c90:	84ae                	mv	s1,a1
    4c92:	4685                	li	a3,1
    4c94:	97ba                	add	a5,a5,a4
    4c96:	b741                	j	4c16 <_vfiprintf_r+0x16a>
    4c98:	0485                	addi	s1,s1,1
    4c9a:	ca02                	sw	zero,20(sp)
    4c9c:	4681                	li	a3,0
    4c9e:	4781                	li	a5,0
    4ca0:	4625                	li	a2,9
    4ca2:	0004c703          	lbu	a4,0(s1)
    4ca6:	00148593          	addi	a1,s1,1
    4caa:	fd070713          	addi	a4,a4,-48
    4cae:	06e67463          	bgeu	a2,a4,4d16 <_vfiprintf_r+0x26a>
    4cb2:	f6e1                	bnez	a3,4c7a <_vfiprintf_r+0x1ce>
    4cb4:	0004c583          	lbu	a1,0(s1)
    4cb8:	460d                	li	a2,3
    4cba:	00001517          	auipc	a0,0x1
    4cbe:	b5a50513          	addi	a0,a0,-1190 # 5814 <__sf_fake_stdin+0x28>
    4cc2:	24a1                	jal	4f0a <memchr>
    4cc4:	cd11                	beqz	a0,4ce0 <_vfiprintf_r+0x234>
    4cc6:	00001797          	auipc	a5,0x1
    4cca:	b4e78793          	addi	a5,a5,-1202 # 5814 <__sf_fake_stdin+0x28>
    4cce:	8d1d                	sub	a0,a0,a5
    4cd0:	47c2                	lw	a5,16(sp)
    4cd2:	04000713          	li	a4,64
    4cd6:	00a71733          	sll	a4,a4,a0
    4cda:	8fd9                	or	a5,a5,a4
    4cdc:	0485                	addi	s1,s1,1
    4cde:	c83e                	sw	a5,16(sp)
    4ce0:	0004c583          	lbu	a1,0(s1)
    4ce4:	4619                	li	a2,6
    4ce6:	00001517          	auipc	a0,0x1
    4cea:	b3250513          	addi	a0,a0,-1230 # 5818 <__sf_fake_stdin+0x2c>
    4cee:	00148913          	addi	s2,s1,1
    4cf2:	02b10423          	sb	a1,40(sp)
    4cf6:	2c11                	jal	4f0a <memchr>
    4cf8:	cd25                	beqz	a0,4d70 <_vfiprintf_r+0x2c4>
    4cfa:	00000793          	li	a5,0
    4cfe:	e795                	bnez	a5,4d2a <_vfiprintf_r+0x27e>
    4d00:	4742                	lw	a4,16(sp)
    4d02:	47b2                	lw	a5,12(sp)
    4d04:	10077713          	andi	a4,a4,256
    4d08:	cf09                	beqz	a4,4d22 <_vfiprintf_r+0x276>
    4d0a:	0791                	addi	a5,a5,4
    4d0c:	c63e                	sw	a5,12(sp)
    4d0e:	5792                	lw	a5,36(sp)
    4d10:	97d2                	add	a5,a5,s4
    4d12:	d23e                	sw	a5,36(sp)
    4d14:	bdad                	j	4b8e <_vfiprintf_r+0xe2>
    4d16:	036787b3          	mul	a5,a5,s6
    4d1a:	84ae                	mv	s1,a1
    4d1c:	4685                	li	a3,1
    4d1e:	97ba                	add	a5,a5,a4
    4d20:	b749                	j	4ca2 <_vfiprintf_r+0x1f6>
    4d22:	079d                	addi	a5,a5,7
    4d24:	9be1                	andi	a5,a5,-8
    4d26:	07a1                	addi	a5,a5,8
    4d28:	b7d5                	j	4d0c <_vfiprintf_r+0x260>
    4d2a:	0078                	addi	a4,sp,12
    4d2c:	00000697          	auipc	a3,0x0
    4d30:	d3e68693          	addi	a3,a3,-706 # 4a6a <__sfputs_r>
    4d34:	8622                	mv	a2,s0
    4d36:	080c                	addi	a1,sp,16
    4d38:	854e                	mv	a0,s3
    4d3a:	00000097          	auipc	ra,0x0
    4d3e:	000000e7          	jalr	zero # 0 <_sinit>
    4d42:	57fd                	li	a5,-1
    4d44:	8a2a                	mv	s4,a0
    4d46:	fcf514e3          	bne	a0,a5,4d0e <_vfiprintf_r+0x262>
    4d4a:	507c                	lw	a5,100(s0)
    4d4c:	8b85                	andi	a5,a5,1
    4d4e:	eb89                	bnez	a5,4d60 <_vfiprintf_r+0x2b4>
    4d50:	00c45783          	lhu	a5,12(s0)
    4d54:	2007f793          	andi	a5,a5,512
    4d58:	e781                	bnez	a5,4d60 <_vfiprintf_r+0x2b4>
    4d5a:	4c28                	lw	a0,88(s0)
    4d5c:	ce0ff0ef          	jal	ra,423c <__retarget_lock_release_recursive>
    4d60:	00c45783          	lhu	a5,12(s0)
    4d64:	0407f793          	andi	a5,a5,64
    4d68:	da0798e3          	bnez	a5,4b18 <_vfiprintf_r+0x6c>
    4d6c:	5512                	lw	a0,36(sp)
    4d6e:	b375                	j	4b1a <_vfiprintf_r+0x6e>
    4d70:	0078                	addi	a4,sp,12
    4d72:	00000697          	auipc	a3,0x0
    4d76:	cf868693          	addi	a3,a3,-776 # 4a6a <__sfputs_r>
    4d7a:	8622                	mv	a2,s0
    4d7c:	080c                	addi	a1,sp,16
    4d7e:	854e                	mv	a0,s3
    4d80:	a3dff0ef          	jal	ra,47bc <_printf_i>
    4d84:	bf7d                	j	4d42 <_vfiprintf_r+0x296>

00004d86 <__sread>:
__sread():
    4d86:	1141                	addi	sp,sp,-16
    4d88:	c422                	sw	s0,8(sp)
    4d8a:	842e                	mv	s0,a1
    4d8c:	00e59583          	lh	a1,14(a1)
    4d90:	c606                	sw	ra,12(sp)
    4d92:	2439                	jal	4fa0 <_read_r>
    4d94:	00054963          	bltz	a0,4da6 <__sread+0x20>
    4d98:	487c                	lw	a5,84(s0)
    4d9a:	97aa                	add	a5,a5,a0
    4d9c:	c87c                	sw	a5,84(s0)
    4d9e:	40b2                	lw	ra,12(sp)
    4da0:	4422                	lw	s0,8(sp)
    4da2:	0141                	addi	sp,sp,16
    4da4:	8082                	ret
    4da6:	00c45783          	lhu	a5,12(s0)
    4daa:	777d                	lui	a4,0xfffff
    4dac:	177d                	addi	a4,a4,-1 # ffffefff <_dmadata_end+0xdffdbbff>
    4dae:	8ff9                	and	a5,a5,a4
    4db0:	00f41623          	sh	a5,12(s0)
    4db4:	b7ed                	j	4d9e <__sread+0x18>

00004db6 <__swrite>:
__swrite():
    4db6:	00c5d783          	lhu	a5,12(a1)
    4dba:	1101                	addi	sp,sp,-32
    4dbc:	cc22                	sw	s0,24(sp)
    4dbe:	ca26                	sw	s1,20(sp)
    4dc0:	c84a                	sw	s2,16(sp)
    4dc2:	c64e                	sw	s3,12(sp)
    4dc4:	ce06                	sw	ra,28(sp)
    4dc6:	1007f793          	andi	a5,a5,256
    4dca:	84aa                	mv	s1,a0
    4dcc:	842e                	mv	s0,a1
    4dce:	8932                	mv	s2,a2
    4dd0:	89b6                	mv	s3,a3
    4dd2:	c791                	beqz	a5,4dde <__swrite+0x28>
    4dd4:	00e59583          	lh	a1,14(a1)
    4dd8:	4689                	li	a3,2
    4dda:	4601                	li	a2,0
    4ddc:	2211                	jal	4ee0 <_lseek_r>
    4dde:	00c45783          	lhu	a5,12(s0)
    4de2:	777d                	lui	a4,0xfffff
    4de4:	177d                	addi	a4,a4,-1 # ffffefff <_dmadata_end+0xdffdbbff>
    4de6:	8ff9                	and	a5,a5,a4
    4de8:	00e41583          	lh	a1,14(s0)
    4dec:	00f41623          	sh	a5,12(s0)
    4df0:	4462                	lw	s0,24(sp)
    4df2:	40f2                	lw	ra,28(sp)
    4df4:	86ce                	mv	a3,s3
    4df6:	864a                	mv	a2,s2
    4df8:	49b2                	lw	s3,12(sp)
    4dfa:	4942                	lw	s2,16(sp)
    4dfc:	8526                	mv	a0,s1
    4dfe:	44d2                	lw	s1,20(sp)
    4e00:	6105                	addi	sp,sp,32
    4e02:	a83d                	j	4e40 <_write_r>

00004e04 <__sseek>:
__sseek():
    4e04:	1141                	addi	sp,sp,-16
    4e06:	c422                	sw	s0,8(sp)
    4e08:	842e                	mv	s0,a1
    4e0a:	00e59583          	lh	a1,14(a1)
    4e0e:	c606                	sw	ra,12(sp)
    4e10:	28c1                	jal	4ee0 <_lseek_r>
    4e12:	577d                	li	a4,-1
    4e14:	00c45783          	lhu	a5,12(s0)
    4e18:	00e51b63          	bne	a0,a4,4e2e <__sseek+0x2a>
    4e1c:	777d                	lui	a4,0xfffff
    4e1e:	177d                	addi	a4,a4,-1 # ffffefff <_dmadata_end+0xdffdbbff>
    4e20:	8ff9                	and	a5,a5,a4
    4e22:	00f41623          	sh	a5,12(s0)
    4e26:	40b2                	lw	ra,12(sp)
    4e28:	4422                	lw	s0,8(sp)
    4e2a:	0141                	addi	sp,sp,16
    4e2c:	8082                	ret
    4e2e:	6705                	lui	a4,0x1
    4e30:	8fd9                	or	a5,a5,a4
    4e32:	00f41623          	sh	a5,12(s0)
    4e36:	c868                	sw	a0,84(s0)
    4e38:	b7fd                	j	4e26 <__sseek+0x22>

00004e3a <__sclose>:
__sclose():
    4e3a:	00e59583          	lh	a1,14(a1)
    4e3e:	a03d                	j	4e6c <_close_r>

00004e40 <_write_r>:
_write_r():
    4e40:	1141                	addi	sp,sp,-16
    4e42:	c422                	sw	s0,8(sp)
    4e44:	842a                	mv	s0,a0
    4e46:	852e                	mv	a0,a1
    4e48:	85b2                	mv	a1,a2
    4e4a:	8636                	mv	a2,a3
    4e4c:	8a01a223          	sw	zero,-1884(gp) # 200003bc <errno>
    4e50:	c606                	sw	ra,12(sp)
    4e52:	b79fb0ef          	jal	ra,9ca <_write>
    4e56:	57fd                	li	a5,-1
    4e58:	00f51663          	bne	a0,a5,4e64 <_write_r+0x24>
    4e5c:	8a41a783          	lw	a5,-1884(gp) # 200003bc <errno>
    4e60:	c391                	beqz	a5,4e64 <_write_r+0x24>
    4e62:	c01c                	sw	a5,0(s0)
    4e64:	40b2                	lw	ra,12(sp)
    4e66:	4422                	lw	s0,8(sp)
    4e68:	0141                	addi	sp,sp,16
    4e6a:	8082                	ret

00004e6c <_close_r>:
_close_r():
    4e6c:	1141                	addi	sp,sp,-16
    4e6e:	c422                	sw	s0,8(sp)
    4e70:	842a                	mv	s0,a0
    4e72:	852e                	mv	a0,a1
    4e74:	8a01a223          	sw	zero,-1884(gp) # 200003bc <errno>
    4e78:	c606                	sw	ra,12(sp)
    4e7a:	2295                	jal	4fde <_close>
    4e7c:	57fd                	li	a5,-1
    4e7e:	00f51663          	bne	a0,a5,4e8a <_close_r+0x1e>
    4e82:	8a41a783          	lw	a5,-1884(gp) # 200003bc <errno>
    4e86:	c391                	beqz	a5,4e8a <_close_r+0x1e>
    4e88:	c01c                	sw	a5,0(s0)
    4e8a:	40b2                	lw	ra,12(sp)
    4e8c:	4422                	lw	s0,8(sp)
    4e8e:	0141                	addi	sp,sp,16
    4e90:	8082                	ret

00004e92 <_fstat_r>:
_fstat_r():
    4e92:	1141                	addi	sp,sp,-16
    4e94:	c422                	sw	s0,8(sp)
    4e96:	842a                	mv	s0,a0
    4e98:	852e                	mv	a0,a1
    4e9a:	85b2                	mv	a1,a2
    4e9c:	8a01a223          	sw	zero,-1884(gp) # 200003bc <errno>
    4ea0:	c606                	sw	ra,12(sp)
    4ea2:	229d                	jal	5008 <_fstat>
    4ea4:	57fd                	li	a5,-1
    4ea6:	00f51663          	bne	a0,a5,4eb2 <_fstat_r+0x20>
    4eaa:	8a41a783          	lw	a5,-1884(gp) # 200003bc <errno>
    4eae:	c391                	beqz	a5,4eb2 <_fstat_r+0x20>
    4eb0:	c01c                	sw	a5,0(s0)
    4eb2:	40b2                	lw	ra,12(sp)
    4eb4:	4422                	lw	s0,8(sp)
    4eb6:	0141                	addi	sp,sp,16
    4eb8:	8082                	ret

00004eba <_isatty_r>:
_isatty_r():
    4eba:	1141                	addi	sp,sp,-16
    4ebc:	c422                	sw	s0,8(sp)
    4ebe:	842a                	mv	s0,a0
    4ec0:	852e                	mv	a0,a1
    4ec2:	8a01a223          	sw	zero,-1884(gp) # 200003bc <errno>
    4ec6:	c606                	sw	ra,12(sp)
    4ec8:	2aa5                	jal	5040 <_isatty>
    4eca:	57fd                	li	a5,-1
    4ecc:	00f51663          	bne	a0,a5,4ed8 <_isatty_r+0x1e>
    4ed0:	8a41a783          	lw	a5,-1884(gp) # 200003bc <errno>
    4ed4:	c391                	beqz	a5,4ed8 <_isatty_r+0x1e>
    4ed6:	c01c                	sw	a5,0(s0)
    4ed8:	40b2                	lw	ra,12(sp)
    4eda:	4422                	lw	s0,8(sp)
    4edc:	0141                	addi	sp,sp,16
    4ede:	8082                	ret

00004ee0 <_lseek_r>:
_lseek_r():
    4ee0:	1141                	addi	sp,sp,-16
    4ee2:	c422                	sw	s0,8(sp)
    4ee4:	842a                	mv	s0,a0
    4ee6:	852e                	mv	a0,a1
    4ee8:	85b2                	mv	a1,a2
    4eea:	8636                	mv	a2,a3
    4eec:	8a01a223          	sw	zero,-1884(gp) # 200003bc <errno>
    4ef0:	c606                	sw	ra,12(sp)
    4ef2:	22b5                	jal	505e <_lseek>
    4ef4:	57fd                	li	a5,-1
    4ef6:	00f51663          	bne	a0,a5,4f02 <_lseek_r+0x22>
    4efa:	8a41a783          	lw	a5,-1884(gp) # 200003bc <errno>
    4efe:	c391                	beqz	a5,4f02 <_lseek_r+0x22>
    4f00:	c01c                	sw	a5,0(s0)
    4f02:	40b2                	lw	ra,12(sp)
    4f04:	4422                	lw	s0,8(sp)
    4f06:	0141                	addi	sp,sp,16
    4f08:	8082                	ret

00004f0a <memchr>:
memchr():
    4f0a:	0ff5f593          	zext.b	a1,a1
    4f0e:	962a                	add	a2,a2,a0
    4f10:	00c51463          	bne	a0,a2,4f18 <memchr+0xe>
    4f14:	4501                	li	a0,0
    4f16:	8082                	ret
    4f18:	00054783          	lbu	a5,0(a0)
    4f1c:	feb78de3          	beq	a5,a1,4f16 <memchr+0xc>
    4f20:	0505                	addi	a0,a0,1
    4f22:	b7fd                	j	4f10 <memchr+0x6>

00004f24 <_realloc_r>:
_realloc_r():
    4f24:	1101                	addi	sp,sp,-32
    4f26:	cc22                	sw	s0,24(sp)
    4f28:	ce06                	sw	ra,28(sp)
    4f2a:	ca26                	sw	s1,20(sp)
    4f2c:	c84a                	sw	s2,16(sp)
    4f2e:	c64e                	sw	s3,12(sp)
    4f30:	c452                	sw	s4,8(sp)
    4f32:	8432                	mv	s0,a2
    4f34:	e999                	bnez	a1,4f4a <_realloc_r+0x26>
    4f36:	4462                	lw	s0,24(sp)
    4f38:	40f2                	lw	ra,28(sp)
    4f3a:	44d2                	lw	s1,20(sp)
    4f3c:	4942                	lw	s2,16(sp)
    4f3e:	49b2                	lw	s3,12(sp)
    4f40:	4a22                	lw	s4,8(sp)
    4f42:	85b2                	mv	a1,a2
    4f44:	6105                	addi	sp,sp,32
    4f46:	979fe06f          	j	38be <_malloc_r>
    4f4a:	ee09                	bnez	a2,4f64 <_realloc_r+0x40>
    4f4c:	87dfe0ef          	jal	ra,37c8 <_free_r>
    4f50:	4481                	li	s1,0
    4f52:	40f2                	lw	ra,28(sp)
    4f54:	4462                	lw	s0,24(sp)
    4f56:	4942                	lw	s2,16(sp)
    4f58:	49b2                	lw	s3,12(sp)
    4f5a:	4a22                	lw	s4,8(sp)
    4f5c:	8526                	mv	a0,s1
    4f5e:	44d2                	lw	s1,20(sp)
    4f60:	6105                	addi	sp,sp,32
    4f62:	8082                	ret
    4f64:	8a2a                	mv	s4,a0
    4f66:	84ae                	mv	s1,a1
    4f68:	208d                	jal	4fca <_malloc_usable_size_r>
    4f6a:	892a                	mv	s2,a0
    4f6c:	00856663          	bltu	a0,s0,4f78 <_realloc_r+0x54>
    4f70:	00155793          	srli	a5,a0,0x1
    4f74:	fc87efe3          	bltu	a5,s0,4f52 <_realloc_r+0x2e>
    4f78:	85a2                	mv	a1,s0
    4f7a:	8552                	mv	a0,s4
    4f7c:	943fe0ef          	jal	ra,38be <_malloc_r>
    4f80:	89aa                	mv	s3,a0
    4f82:	d579                	beqz	a0,4f50 <_realloc_r+0x2c>
    4f84:	8622                	mv	a2,s0
    4f86:	00897363          	bgeu	s2,s0,4f8c <_realloc_r+0x68>
    4f8a:	864a                	mv	a2,s2
    4f8c:	85a6                	mv	a1,s1
    4f8e:	854e                	mv	a0,s3
    4f90:	930fb0ef          	jal	ra,c0 <memcpy>
    4f94:	85a6                	mv	a1,s1
    4f96:	8552                	mv	a0,s4
    4f98:	831fe0ef          	jal	ra,37c8 <_free_r>
    4f9c:	84ce                	mv	s1,s3
    4f9e:	bf55                	j	4f52 <_realloc_r+0x2e>

00004fa0 <_read_r>:
_read_r():
    4fa0:	1141                	addi	sp,sp,-16
    4fa2:	c422                	sw	s0,8(sp)
    4fa4:	842a                	mv	s0,a0
    4fa6:	852e                	mv	a0,a1
    4fa8:	85b2                	mv	a1,a2
    4faa:	8636                	mv	a2,a3
    4fac:	8a01a223          	sw	zero,-1884(gp) # 200003bc <errno>
    4fb0:	c606                	sw	ra,12(sp)
    4fb2:	28d9                	jal	5088 <_read>
    4fb4:	57fd                	li	a5,-1
    4fb6:	00f51663          	bne	a0,a5,4fc2 <_read_r+0x22>
    4fba:	8a41a783          	lw	a5,-1884(gp) # 200003bc <errno>
    4fbe:	c391                	beqz	a5,4fc2 <_read_r+0x22>
    4fc0:	c01c                	sw	a5,0(s0)
    4fc2:	40b2                	lw	ra,12(sp)
    4fc4:	4422                	lw	s0,8(sp)
    4fc6:	0141                	addi	sp,sp,16
    4fc8:	8082                	ret

00004fca <_malloc_usable_size_r>:
_malloc_usable_size_r():
    4fca:	ffc5a783          	lw	a5,-4(a1)
    4fce:	ffc78513          	addi	a0,a5,-4
    4fd2:	0007d563          	bgez	a5,4fdc <_malloc_usable_size_r+0x12>
    4fd6:	95aa                	add	a1,a1,a0
    4fd8:	419c                	lw	a5,0(a1)
    4fda:	953e                	add	a0,a0,a5
    4fdc:	8082                	ret

00004fde <_close>:
_close():
    4fde:	1141                	addi	sp,sp,-16
    4fe0:	c606                	sw	ra,12(sp)
    4fe2:	c422                	sw	s0,8(sp)
    4fe4:	03900893          	li	a7,57
    4fe8:	00000073          	ecall
    4fec:	842a                	mv	s0,a0
    4fee:	00055863          	bgez	a0,4ffe <_close+0x20>
    4ff2:	40800433          	neg	s0,s0
    4ff6:	fccfe0ef          	jal	ra,37c2 <__errno>
    4ffa:	c100                	sw	s0,0(a0)
    4ffc:	547d                	li	s0,-1
    4ffe:	40b2                	lw	ra,12(sp)
    5000:	8522                	mv	a0,s0
    5002:	4422                	lw	s0,8(sp)
    5004:	0141                	addi	sp,sp,16
    5006:	8082                	ret

00005008 <_fstat>:
_fstat():
    5008:	7175                	addi	sp,sp,-144
    500a:	c326                	sw	s1,132(sp)
    500c:	c706                	sw	ra,140(sp)
    500e:	84ae                	mv	s1,a1
    5010:	c522                	sw	s0,136(sp)
    5012:	05000893          	li	a7,80
    5016:	858a                	mv	a1,sp
    5018:	00000073          	ecall
    501c:	842a                	mv	s0,a0
    501e:	00055863          	bgez	a0,502e <_fstat+0x26>
    5022:	40800433          	neg	s0,s0
    5026:	f9cfe0ef          	jal	ra,37c2 <__errno>
    502a:	c100                	sw	s0,0(a0)
    502c:	547d                	li	s0,-1
    502e:	8526                	mv	a0,s1
    5030:	858a                	mv	a1,sp
    5032:	20e1                	jal	50fa <_conv_stat>
    5034:	40ba                	lw	ra,140(sp)
    5036:	8522                	mv	a0,s0
    5038:	442a                	lw	s0,136(sp)
    503a:	449a                	lw	s1,132(sp)
    503c:	6149                	addi	sp,sp,144
    503e:	8082                	ret

00005040 <_isatty>:
_isatty():
    5040:	7159                	addi	sp,sp,-112
    5042:	002c                	addi	a1,sp,8
    5044:	d686                	sw	ra,108(sp)
    5046:	37c9                	jal	5008 <_fstat>
    5048:	57fd                	li	a5,-1
    504a:	00f50863          	beq	a0,a5,505a <_isatty+0x1a>
    504e:	4532                	lw	a0,12(sp)
    5050:	8135                	srli	a0,a0,0xd
    5052:	8905                	andi	a0,a0,1
    5054:	50b6                	lw	ra,108(sp)
    5056:	6165                	addi	sp,sp,112
    5058:	8082                	ret
    505a:	4501                	li	a0,0
    505c:	bfe5                	j	5054 <_isatty+0x14>

0000505e <_lseek>:
_lseek():
    505e:	1141                	addi	sp,sp,-16
    5060:	c606                	sw	ra,12(sp)
    5062:	c422                	sw	s0,8(sp)
    5064:	03e00893          	li	a7,62
    5068:	00000073          	ecall
    506c:	842a                	mv	s0,a0
    506e:	00055863          	bgez	a0,507e <_lseek+0x20>
    5072:	40800433          	neg	s0,s0
    5076:	f4cfe0ef          	jal	ra,37c2 <__errno>
    507a:	c100                	sw	s0,0(a0)
    507c:	547d                	li	s0,-1
    507e:	40b2                	lw	ra,12(sp)
    5080:	8522                	mv	a0,s0
    5082:	4422                	lw	s0,8(sp)
    5084:	0141                	addi	sp,sp,16
    5086:	8082                	ret

00005088 <_read>:
_read():
    5088:	1141                	addi	sp,sp,-16
    508a:	c606                	sw	ra,12(sp)
    508c:	c422                	sw	s0,8(sp)
    508e:	03f00893          	li	a7,63
    5092:	00000073          	ecall
    5096:	842a                	mv	s0,a0
    5098:	00055863          	bgez	a0,50a8 <_read+0x20>
    509c:	40800433          	neg	s0,s0
    50a0:	f22fe0ef          	jal	ra,37c2 <__errno>
    50a4:	c100                	sw	s0,0(a0)
    50a6:	547d                	li	s0,-1
    50a8:	40b2                	lw	ra,12(sp)
    50aa:	8522                	mv	a0,s0
    50ac:	4422                	lw	s0,8(sp)
    50ae:	0141                	addi	sp,sp,16
    50b0:	8082                	ret

000050b2 <_sbrk>:
_sbrk():
    50b2:	8a818693          	addi	a3,gp,-1880 # 200003c0 <heap_end.0>
    50b6:	4298                	lw	a4,0(a3)
    50b8:	1141                	addi	sp,sp,-16
    50ba:	c606                	sw	ra,12(sp)
    50bc:	87aa                	mv	a5,a0
    50be:	e315                	bnez	a4,50e2 <_sbrk+0x30>
    50c0:	0d600893          	li	a7,214
    50c4:	4501                	li	a0,0
    50c6:	00000073          	ecall
    50ca:	577d                	li	a4,-1
    50cc:	00e51a63          	bne	a0,a4,50e0 <_sbrk+0x2e>
    50d0:	ef2fe0ef          	jal	ra,37c2 <__errno>
    50d4:	47b1                	li	a5,12
    50d6:	c11c                	sw	a5,0(a0)
    50d8:	557d                	li	a0,-1
    50da:	40b2                	lw	ra,12(sp)
    50dc:	0141                	addi	sp,sp,16
    50de:	8082                	ret
    50e0:	c288                	sw	a0,0(a3)
    50e2:	4298                	lw	a4,0(a3)
    50e4:	0d600893          	li	a7,214
    50e8:	97ba                	add	a5,a5,a4
    50ea:	853e                	mv	a0,a5
    50ec:	00000073          	ecall
    50f0:	fef510e3          	bne	a0,a5,50d0 <_sbrk+0x1e>
    50f4:	c288                	sw	a0,0(a3)
    50f6:	853a                	mv	a0,a4
    50f8:	b7cd                	j	50da <_sbrk+0x28>

000050fa <_conv_stat>:
_conv_stat():
    50fa:	419c                	lw	a5,0(a1)
    50fc:	45b8                	lw	a4,72(a1)
    50fe:	00f51023          	sh	a5,0(a0)
    5102:	459c                	lw	a5,8(a1)
    5104:	00f51123          	sh	a5,2(a0)
    5108:	499c                	lw	a5,16(a1)
    510a:	c15c                	sw	a5,4(a0)
    510c:	49dc                	lw	a5,20(a1)
    510e:	00f51423          	sh	a5,8(a0)
    5112:	4d9c                	lw	a5,24(a1)
    5114:	00f51523          	sh	a5,10(a0)
    5118:	4ddc                	lw	a5,28(a1)
    511a:	00f51623          	sh	a5,12(a0)
    511e:	519c                	lw	a5,32(a1)
    5120:	00f51723          	sh	a5,14(a0)
    5124:	599c                	lw	a5,48(a1)
    5126:	c91c                	sw	a5,16(a0)
    5128:	41bc                	lw	a5,64(a1)
    512a:	c57c                	sw	a5,76(a0)
    512c:	5d9c                	lw	a5,56(a1)
    512e:	c53c                	sw	a5,72(a0)
    5130:	45fc                	lw	a5,76(a1)
    5132:	cd18                	sw	a4,24(a0)
    5134:	4db8                	lw	a4,88(a1)
    5136:	cd5c                	sw	a5,28(a0)
    5138:	4dfc                	lw	a5,92(a1)
    513a:	d518                	sw	a4,40(a0)
    513c:	55b8                	lw	a4,104(a1)
    513e:	d55c                	sw	a5,44(a0)
    5140:	55fc                	lw	a5,108(a1)
    5142:	dd18                	sw	a4,56(a0)
    5144:	dd5c                	sw	a5,60(a0)
    5146:	8082                	ret
    5148:	015c                	addi	a5,sp,132
    514a:	0000                	unimp
    514c:	0178                	addi	a4,sp,140
    514e:	0000                	unimp
    5150:	019a                	slli	gp,gp,0x6
    5152:	0000                	unimp
    5154:	01bc                	addi	a5,sp,200
    5156:	0000                	unimp
    5158:	01ca                	slli	gp,gp,0x12
    515a:	0000                	unimp
    515c:	01d8                	addi	a4,sp,196
    515e:	0000                	unimp
    5160:	01fa                	slli	gp,gp,0x1e
    5162:	0000                	unimp
    5164:	021c                	addi	a5,sp,256
    5166:	0000                	unimp
    5168:	0230                	addi	a2,sp,264
    516a:	0000                	unimp
    516c:	0136                	slli	sp,sp,0xd
    516e:	0000                	unimp
    5170:	0152                	slli	sp,sp,0x14
    5172:	0000                	unimp
    5174:	0278                	addi	a4,sp,268
    5176:	0000                	unimp
    5178:	0294                	addi	a3,sp,320
    517a:	0000                	unimp
    517c:	02b6                	slli	t0,t0,0xd
    517e:	0000                	unimp
    5180:	02d8                	addi	a4,sp,324
    5182:	0000                	unimp
    5184:	02e6                	slli	t0,t0,0x19
    5186:	0000                	unimp
    5188:	02f4                	addi	a3,sp,332
    518a:	0000                	unimp
    518c:	0316                	slli	t1,t1,0x5
    518e:	0000                	unimp
    5190:	0338                	addi	a4,sp,392
    5192:	0000                	unimp
    5194:	034c                	addi	a1,sp,388
    5196:	0000                	unimp
    5198:	0252                	slli	tp,tp,0x14
    519a:	0000                	unimp
    519c:	026e                	slli	tp,tp,0x1b
    519e:	0000                	unimp
    51a0:	3025                	jal	49c8 <_printf_i+0x20c>
    51a2:	7532                	.2byte	0x7532
    51a4:	30252073          	csrs	medeleg,a0
    51a8:	736d7533          	.4byte	0x736d7533
    51ac:	2520                	.2byte	0x2520
    51ae:	3330                	.2byte	0x3330
    51b0:	7575                	lui	a0,0xffffd
    51b2:	00002073          	csrr	zero,ustatus
    51b6:	0000                	unimp
    51b8:	205d445b          	.4byte	0x205d445b
    51bc:	20434443          	.4byte	0x20434443
    51c0:	20746573          	csrrsi	a0,0x207,8
    51c4:	696c                	.2byte	0x696c
    51c6:	656e                	.2byte	0x656e
    51c8:	6320                	.2byte	0x6320
    51ca:	6e69646f          	jal	s0,9b8b0 <_data_lma+0x96010>
    51ce:	253c2067          	.4byte	0x253c2067
    51d2:	2064                	.2byte	0x2064
    51d4:	6325                	lui	t1,0x9
    51d6:	2520                	.2byte	0x2520
    51d8:	2064                	.2byte	0x2064
    51da:	7325                	lui	t1,0xfffe9
    51dc:	0a3e                	slli	s4,s4,0xf
    51de:	0000                	unimp
    51e0:	205d445b          	.4byte	0x205d445b
    51e4:	20434443          	.4byte	0x20434443
    51e8:	20746567          	.4byte	0x20746567
    51ec:	696c                	.2byte	0x696c
    51ee:	656e                	.2byte	0x656e
    51f0:	6320                	.2byte	0x6320
    51f2:	6e69646f          	jal	s0,9b8d8 <_data_lma+0x96038>
    51f6:	253c2067          	.4byte	0x253c2067
    51fa:	2064                	.2byte	0x2064
    51fc:	6325                	lui	t1,0x9
    51fe:	2520                	.2byte	0x2520
    5200:	2064                	.2byte	0x2064
    5202:	7325                	lui	t1,0xfffe9
    5204:	0a3e                	slli	s4,s4,0xf
    5206:	0000                	unimp
    5208:	205d445b          	.4byte	0x205d445b
    520c:	20434443          	.4byte	0x20434443
    5210:	20746553          	.4byte	0x20746553
    5214:	694c                	.2byte	0x694c
    5216:	656e                	.2byte	0x656e
    5218:	74617473          	csrrci	s0,0x746,2
    521c:	2065                	jal	52c4 <stop_name+0x54>
    521e:	5444                	lw	s1,44(s0)
    5220:	3d52                	.2byte	0x3d52
    5222:	6425                	lui	s0,0x9
    5224:	202c                	.2byte	0x202c
    5226:	5452                	lw	s0,52(sp)
    5228:	64253d53          	.4byte	0x64253d53
    522c:	000a                	c.slli	zero,0x2
    522e:	0000                	unimp
    5230:	205d445b          	.4byte	0x205d445b
    5234:	20434443          	.4byte	0x20434443
    5238:	646e6553          	.4byte	0x646e6553
    523c:	6220                	.2byte	0x6220
    523e:	6572                	.2byte	0x6572
    5240:	6b61                	lui	s6,0x18
    5242:	2520                	.2byte	0x2520
    5244:	2064                	.2byte	0x2064
    5246:	736d                	lui	t1,0xffffb
    5248:	000a                	c.slli	zero,0x2
    524a:	0000                	unimp
    524c:	4f4e                	lw	t5,208(sp)
    524e:	4d45                	li	s10,17
    5250:	00000053          	.4byte	0x53

00005254 <cdc_device_backend>:
    5254:	00000a78 00000c54 00000a3a 00000a66     x...T...:...f...
    5264:	00000031 00352e31 00000032              1...1.5.2...

00005270 <stop_name>:
    5270:	00005264 00005268 0000526c 205d455b     dR..hR..lR..[E] 
    5280:	36354843 53552078 78742042 66756220     CH56x USB tx buf
    5290:	20726566 20746f6e 62203631 73657479     fer not 16 bytes
    52a0:	696c6120 64656e67 00000000 205d455b      aligned....[E] 
    52b0:	36354843 53552078 78742042 66756220     CH56x USB tx buf
    52c0:	20726566 7473756d 206e6920 584d4152     fer must in RAMX
    52d0:	00000000 205d455b 36354843 53552078     ....[E] CH56x US
    52e0:	78722042 66756220 20726566 20746f6e     B rx buffer not 
    52f0:	62203631 73657479 696c6120 64656e67     16 bytes aligned
    5300:	00000000 205d455b 36354843 53552078     ....[E] CH56x US
    5310:	78722042 66756220 20726566 7473756d     B rx buffer must
    5320:	206e6920 584d4152 00000000 0000169a      in RAMX........
    5330:	00001654 00001674 00001654 00001654     T...t...T...T...
    5340:	000017bc 00001774 00001752 00001774     ....t...R...t...
    5350:	00001752 0000176c 00001786 00001752     R...l.......R...
    5360:	00001752 00001774 00001774 00001774     R...t...t...t...
    5370:	00001752 00001752 00001752 00001752     R...R...R...R...
    5380:	00001752 00001752 00001752 00001752     R...R...R...R...
    5390:	00001752 00001752 00001752 00001752     R...R...R...R...
    53a0:	00001752 00001752 00001752 00001752     R...R...R...R...
    53b0:	00001752 00001752 00001752 00001752     R...R...R...R...
    53c0:	00001752 00001752 00001752 00001752     R...R...R...R...
    53d0:	00001752 00001752 00001752 00001752     R...R...R...R...
    53e0:	00001752 00001752 00001752 00001752     R...R...R...R...
    53f0:	00001752 00001752 00001752 00001752     R...R...R...R...
    5400:	00001774 0000176c 00002482 000023e4     t...l....$...#..
    5410:	000024a8 000023e4 000023e4 0000265e     .$...#...#..^&..
    5420:	00002638 00002556 00002544 00002556     8&..V%..D%..V%..
    5430:	000025b6 000025c0 00002556 000025fc     .%...%..V%...%..
    5440:	0000260c 0000255c 0000255c              .&..\%..\%..

0000544c <htoa>:
    544c:	33323130 37363534 42413938 46454443     0123456789ABCDEF
    545c:	72617453 00000a74 70696843 48284449     Start...ChipID(H
    546c:	3d297865 58323025 0000000a 53414c46     ex)=%02X....FLAS
    547c:	4f525f48 555f414d 48284449 3d297865     H_ROMA_UID(Hex)=
    548c:	58323025 32302520 30252058 25205832     %02X %02X %02X %
    549c:	20583230 58323025 32302520 30252058     02X %02X %02X %0
    54ac:	25205832 0a583230 00000000 72647948     2X %02X.....Hydr
    54bc:	42535561 53555f33 57462042 2e317620     aUSB3_USB FW v1.
    54cc:	20312e30 412d3232 322d6775 28323230     0.1 22-Aug-2022(
    54dc:	20555043 71657246 2064253d 297a484d     CPU Freq=%d MHz)
    54ec:	0000000a 5f464544 50444e45 414d5f31     ....DEF_ENDP1_MA
    54fc:	49535f58 253d455a 45442064 4e455f46     X_SIZE=%d DEF_EN
    550c:	5f325044 5f58414d 455a4953 0a64253d     DP2_MAX_SIZE=%d.
    551c:	00000000 64726148 6c756146 00000074     ....HardFault...
    552c:	3d505320 30257830 000a5838 45494d20      SP=0x%08X.. MIE
    553c:	2578303d 0a583830 00000000 54534d20     =0x%08X..... MST
    554c:	53555441 2578303d 0a583830 00000000     ATUS=0x%08X.....
    555c:	41434d20 3d455355 30257830 000a5838      MCAUSE=0x%08X..
    556c:	20646d63 52474f4c 0000000a 20646d63     cmd LOGR....cmd 
    557c:	53425355 42535520 00000a33 53425355     USBS USB3...USBS
    558c:	42535520 4c0a3a33 5f4b4e49 54415453      USB3:.LINK_STAT
    559c:	303d5355 38302578 494c0a58 455f4b4e     US=0x%08X.LINK_E
    55ac:	535f5252 55544154 78303d53 58383025     RR_STATUS=0x%08X
    55bc:	4e494c0a 52455f4b 4e435f52 78303d54     .LINK_ERR_CNT=0x
    55cc:	58383025 00000000 20646d63 53425355     %08X....cmd USBS
    55dc:	42535520 00000a32 53425355 42535520      USB2...USBS USB
    55ec:	550a3a32 20324253 45455053 64253d44     2:.USB2 SPEED=%d
    55fc:	3d302820 312c5346 2c53483d 534c3d32      (0=FS,1=HS,2=LS
    560c:	65540a29 65207473 7720646e 20687469     ).Test end with 
    561c:	63637573 0a737365 00000000 53425355     success.....USBS
    562c:	42535520 550a3a32 20324253 45455053      USB2:.USB2 SPEE
    563c:	64253d44 3d302820 312c5346 2c53483d     D=%d (0=FS,1=HS,
    564c:	534c3d32 65540a29 66207473 756c6961     2=LS).Test failu
    565c:	65206572 7720646e 20687469 6f727265     re end with erro
    566c:	00000a72 20646d63 32425355 0000000a     r...cmd USB2....
    567c:	63726f46 53552065 000a3242 20646d63     Force USB2..cmd 
    568c:	33425355 0000000a 63726f46 53552065     USB3....Force US
    569c:	000a3342 20444d43 4e4b4e55 0000000a     B3..CMD UNKN....

000056ac <__clz_tab>:
    56ac:	02020100 03030303 04040404 04040404     ................
    56bc:	05050505 05050505 05050505 05050505     ................
    56cc:	06060606 06060606 06060606 06060606     ................
    56dc:	06060606 06060606 06060606 06060606     ................
    56ec:	07070707 07070707 07070707 07070707     ................
    56fc:	07070707 07070707 07070707 07070707     ................
    570c:	07070707 07070707 07070707 07070707     ................
    571c:	07070707 07070707 07070707 07070707     ................
    572c:	08080808 08080808 08080808 08080808     ................
    573c:	08080808 08080808 08080808 08080808     ................
    574c:	08080808 08080808 08080808 08080808     ................
    575c:	08080808 08080808 08080808 08080808     ................
    576c:	08080808 08080808 08080808 08080808     ................
    577c:	08080808 08080808 08080808 08080808     ................
    578c:	08080808 08080808 08080808 08080808     ................
    579c:	08080808 08080808 08080808 08080808     ................

000057ac <__sf_fake_stderr>:
	...

000057cc <__sf_fake_stdout>:
	...

000057ec <__sf_fake_stdin>:
	...
    580c:	2b302d23 00000020 004c6c68 45676665     #-0+ ...hlL.efgE
    581c:	00004746 33323130 37363534 42413938     FG..0123456789AB
    582c:	46454443 00000000 33323130 37363534     CDEF....01234567
    583c:	62613938 66656463 00000000 ffffefe4     89abcdef........
    584c:	ffffeffa ffffefba ffffefba ffffefba     ................
    585c:	ffffefba ffffeffa ffffefba ffffefba     ................
    586c:	ffffefba ffffefba fffff160 fffff062     ........`...b...
    587c:	fffff0f8 ffffefba ffffefba fffff190     ................
    588c:	ffffefba fffff062 ffffefba ffffefba     ....b...........
    589c:	fffff100                                ....
